
base_test.elf:     file format elf32-littleriscv


Disassembly of section .text:

80000000 <_start>:
80000000:	4101                	li	sp,0
80000002:	4181                	li	gp,0
80000004:	4201                	li	tp,0
80000006:	517d                	li	sp,-1
80000008:	4685                	li	a3,1
8000000a:	00269733          	sll	a4,a3,sp
8000000e:	cc728013          	addi	zero,t0,-825
80000012:	e1430013          	addi	zero,t1,-492
80000016:	10138013          	addi	zero,t2,257
8000001a:	f7d40013          	addi	zero,s0,-131
8000001e:	cde48013          	addi	zero,s1,-802
80000022:	dfc50013          	addi	zero,a0,-516
80000026:	f2158013          	addi	zero,a1,-223
8000002a:	d2460013          	addi	zero,a2,-732
8000002e:	ed268013          	addi	zero,a3,-302
80000032:	3e770013          	addi	zero,a4,999
80000036:	c2678013          	addi	zero,a5,-986
8000003a:	1c780013          	addi	zero,a6,455
8000003e:	28988013          	addi	zero,a7,649
80000042:	d7390013          	addi	zero,s2,-653
80000046:	f2e98013          	addi	zero,s3,-210
8000004a:	fe3a0013          	addi	zero,s4,-29
8000004e:	0aaa8013          	addi	zero,s5,170
80000052:	211b0013          	addi	zero,s6,529
80000056:	3afb8013          	addi	zero,s7,943
8000005a:	23bc0013          	addi	zero,s8,571
8000005e:	f13c8013          	addi	zero,s9,-237
80000062:	dedd0013          	addi	zero,s10,-531
80000066:	2f5d8013          	addi	zero,s11,757
8000006a:	f4ae0013          	addi	zero,t3,-182
8000006e:	29ee8013          	addi	zero,t4,670
80000072:	0c4f0013          	addi	zero,t5,196
80000076:	e88f8013          	addi	zero,t6,-376
8000007a:	01cf85b3          	add	a1,t6,t3
8000007e:	fdf58793          	addi	a5,a1,-33
80000082:	010c0fb3          	add	t6,s8,a6
80000086:	011fc733          	xor	a4,t6,a7
8000008a:	020ffc13          	andi	s8,t6,32
8000008e:	009d0ab3          	add	s5,s10,s1
80000092:	01cacb33          	xor	s6,s5,t3
80000096:	00fa86b3          	add	a3,s5,a5
8000009a:	406a8333          	sub	t1,s5,t1
8000009e:	00e68e33          	add	t3,a3,a4
800000a2:	01ee6fb3          	or	t6,t3,t5
800000a6:	026e4413          	xori	s0,t3,38
800000aa:	001e6913          	ori	s2,t3,1
800000ae:	409e0cb3          	sub	s9,t3,s1
800000b2:	00e40333          	add	t1,s0,a4
800000b6:	016304b3          	add	s1,t1,s6
800000ba:	02436d93          	ori	s11,t1,36
800000be:	01c30b33          	add	s6,t1,t3
800000c2:	00637e33          	and	t3,t1,t1
800000c6:	00737833          	and	a6,t1,t2
800000ca:	00a588b3          	add	a7,a1,a0
800000ce:	41150ab3          	sub	s5,a0,a7
800000d2:	00ef8ab3          	add	s5,t6,a4
800000d6:	015c4333          	xor	t1,s8,s5
800000da:	015c42b3          	xor	t0,s8,s5
800000de:	01dc89b3          	add	s3,s9,t4
800000e2:	413f0833          	sub	a6,t5,s3
800000e6:	9f4e                	add	t5,t5,s3
800000e8:	013f7b33          	and	s6,t5,s3
800000ec:	008b82b3          	add	t0,s7,s0
800000f0:	00540cb3          	add	s9,s0,t0
800000f4:	005407b3          	add	a5,s0,t0
800000f8:	005aeab3          	or	s5,s5,t0
800000fc:	0059f3b3          	and	t2,s3,t0
80000100:	01dd89b3          	add	s3,s11,t4
80000104:	0132e533          	or	a0,t0,s3
80000108:	0132ef33          	or	t5,t0,s3
8000010c:	013a6fb3          	or	t6,s4,s3
80000110:	013a7fb3          	and	t6,s4,s3
80000114:	413a0433          	sub	s0,s4,s3
80000118:	41490d33          	sub	s10,s2,s4
8000011c:	00ad4633          	xor	a2,s10,a0
80000120:	40a98633          	sub	a2,s3,a0
80000124:	01067433          	and	s0,a2,a6
80000128:	01e64e13          	xori	t3,a2,30
8000012c:	40e38e33          	sub	t3,t2,a4
80000130:	9e32                	add	t3,t3,a2
80000132:	00ce43b3          	xor	t2,t3,a2
80000136:	016e0593          	addi	a1,t3,22
8000013a:	41b38433          	sub	s0,t2,s11
8000013e:	fd846393          	ori	t2,s0,-40
80000142:	fe544e13          	xori	t3,s0,-27
80000146:	01040e33          	add	t3,s0,a6
8000014a:	01246bb3          	or	s7,s0,s2
8000014e:	40930633          	sub	a2,t1,s1
80000152:	00664db3          	xor	s11,a2,t1
80000156:	014647b3          	xor	a5,a2,s4
8000015a:	41a60633          	sub	a2,a2,s10
8000015e:	00960a93          	addi	s5,a2,9
80000162:	ff966b93          	ori	s7,a2,-7
80000166:	40f982b3          	sub	t0,s3,a5
8000016a:	00580633          	add	a2,a6,t0
8000016e:	41cd8833          	sub	a6,s11,t3
80000172:	010e6eb3          	or	t4,t3,a6
80000176:	01096bb3          	or	s7,s2,a6
8000017a:	410a8533          	sub	a0,s5,a6
8000017e:	00a87d33          	and	s10,a6,a0
80000182:	00a2cb33          	xor	s6,t0,a0
80000186:	00ad4c33          	xor	s8,s10,a0
8000018a:	40870833          	sub	a6,a4,s0
8000018e:	01046833          	or	a6,s0,a6
80000192:	41038fb3          	sub	t6,t2,a6
80000196:	0108e8b3          	or	a7,a7,a6
8000019a:	41088333          	sub	t1,a7,a6
8000019e:	41440c33          	sub	s8,s0,s4
800001a2:	018a74b3          	and	s1,s4,s8
800001a6:	018a4db3          	xor	s11,s4,s8
800001aa:	018e04b3          	add	s1,t3,s8
800001ae:	41860bb3          	sub	s7,a2,s8
800001b2:	01864533          	xor	a0,a2,s8
800001b6:	01434e33          	xor	t3,t1,s4
800001ba:	005e4e33          	xor	t3,t3,t0
800001be:	01a74833          	xor	a6,a4,s10
800001c2:	9942                	add	s2,s2,a6
800001c4:	00187a93          	andi	s5,a6,1
800001c8:	0108cd33          	xor	s10,a7,a6
800001cc:	01cd4833          	xor	a6,s10,t3
800001d0:	01cd6633          	or	a2,s10,t3
800001d4:	41fd0c33          	sub	s8,s10,t6
800001d8:	00f3c333          	xor	t1,t2,a5
800001dc:	006306b3          	add	a3,t1,t1
800001e0:	fef36713          	ori	a4,t1,-17
800001e4:	02637313          	andi	t1,t1,38
800001e8:	ff330893          	addi	a7,t1,-13
800001ec:	00b9ccb3          	xor	s9,s3,a1
800001f0:	40bc8733          	sub	a4,s9,a1
800001f4:	003ced13          	ori	s10,s9,3
800001f8:	fd8ce913          	ori	s2,s9,-40
800001fc:	016c8433          	add	s0,s9,s6
80000200:	41ec82b3          	sub	t0,s9,t5
80000204:	013842b3          	xor	t0,a6,s3
80000208:	0059ccb3          	xor	s9,s3,t0
8000020c:	005e4db3          	xor	s11,t3,t0
80000210:	01b2f3b3          	and	t2,t0,s11
80000214:	01bfceb3          	xor	t4,t6,s11
80000218:	00b54333          	xor	t1,a0,a1
8000021c:	006d8633          	add	a2,s11,t1
80000220:	00644fb3          	xor	t6,s0,t1
80000224:	006507b3          	add	a5,a0,t1
80000228:	01644633          	xor	a2,s0,s6
8000022c:	00cb7db3          	and	s11,s6,a2
80000230:	40cb0833          	sub	a6,s6,a2
80000234:	40ca0d33          	sub	s10,s4,a2
80000238:	40cf0bb3          	sub	s7,t5,a2
8000023c:	01eecd33          	xor	s10,t4,t5
80000240:	01a88c33          	add	s8,a7,s10
80000244:	01a87cb3          	and	s9,a6,s10
80000248:	01a84733          	xor	a4,a6,s10
8000024c:	41a80333          	sub	t1,a6,s10
80000250:	01ad4433          	xor	s0,s10,s10
80000254:	0137e633          	or	a2,a5,s3
80000258:	00566cb3          	or	s9,a2,t0
8000025c:	01a9e3b3          	or	t2,s3,s10
80000260:	fe838693          	addi	a3,t2,-24
80000264:	01f3f693          	andi	a3,t2,31
80000268:	0165edb3          	or	s11,a1,s6
8000026c:	00fdfa33          	and	s4,s11,a5
80000270:	414d8733          	sub	a4,s11,s4
80000274:	fdfd8b93          	addi	s7,s11,-33
80000278:	014de733          	or	a4,s11,s4
8000027c:	01b70b33          	add	s6,a4,s11
80000280:	01a74393          	xori	t2,a4,26
80000284:	02777c13          	andi	s8,a4,39
80000288:	ff470893          	addi	a7,a4,-12
8000028c:	00c6ecb3          	or	s9,a3,a2
80000290:	fdbcc393          	xori	t2,s9,-37
80000294:	40fc88b3          	sub	a7,s9,a5
80000298:	fefc8f93          	addi	t6,s9,-17
8000029c:	01dc8733          	add	a4,s9,t4
800002a0:	fe5ceb13          	ori	s6,s9,-27
800002a4:	005e66b3          	or	a3,t3,t0
800002a8:	00d488b3          	add	a7,s1,a3
800002ac:	009463b3          	or	t2,s0,s1
800002b0:	40760fb3          	sub	t6,a2,t2
800002b4:	00766633          	or	a2,a2,t2
800002b8:	0128e7b3          	or	a5,a7,s2
800002bc:	00f602b3          	add	t0,a2,a5
800002c0:	00f60cb3          	add	s9,a2,a5
800002c4:	00f9e633          	or	a2,s3,a5
800002c8:	00adea33          	or	s4,s11,a0
800002cc:	014684b3          	add	s1,a3,s4
800002d0:	41468733          	sub	a4,a3,s4
800002d4:	014a84b3          	add	s1,s5,s4
800002d8:	014af333          	and	t1,s5,s4
800002dc:	0082ebb3          	or	s7,t0,s0
800002e0:	017408b3          	add	a7,s0,s7
800002e4:	0179ea33          	or	s4,s3,s7
800002e8:	01768533          	add	a0,a3,s7
800002ec:	0176fa33          	and	s4,a3,s7
800002f0:	01786b33          	or	s6,a6,s7
800002f4:	01a973b3          	and	t2,s2,s10
800002f8:	0193fd33          	and	s10,t2,s9
800002fc:	01bafb33          	and	s6,s5,s11
80000300:	ff7b7a93          	andi	s5,s6,-9
80000304:	014b6db3          	or	s11,s6,s4
80000308:	01fe7333          	and	t1,t3,t6
8000030c:	fdd37493          	andi	s1,t1,-35
80000310:	00537fb3          	and	t6,t1,t0
80000314:	00b36733          	or	a4,t1,a1
80000318:	01a777b3          	and	a5,a4,s10
8000031c:	01e7f493          	andi	s1,a5,30
80000320:	41878633          	sub	a2,a5,s8
80000324:	01178313          	addi	t1,a5,17
80000328:	41c78cb3          	sub	s9,a5,t3
8000032c:	00cc75b3          	and	a1,s8,a2
80000330:	8dae                	mv	s11,a1
80000332:	0085e8b3          	or	a7,a1,s0
80000336:	00858533          	add	a0,a1,s0
8000033a:	00b5f433          	and	s0,a1,a1
8000033e:	00e58eb3          	add	t4,a1,a4
80000342:	012f79b3          	and	s3,t5,s2
80000346:	0132ee33          	or	t3,t0,s3
8000034a:	012ef5b3          	and	a1,t4,s2
8000034e:	00ba6f33          	or	t5,s4,a1
80000352:	00ba0db3          	add	s11,s4,a1
80000356:	013f7cb3          	and	s9,t5,s3
8000035a:	0199fe33          	and	t3,s3,s9
8000035e:	019bf633          	and	a2,s7,s9
80000362:	019965b3          	or	a1,s2,s9
80000366:	01f673b3          	and	t2,a2,t6
8000036a:	007a8eb3          	add	t4,s5,t2
8000036e:	0073eeb3          	or	t4,t2,t2
80000372:	0073fab3          	and	s5,t2,t2
80000376:	0076f4b3          	and	s1,a3,t2
8000037a:	0066f8b3          	and	a7,a3,t1
8000037e:	01130533          	add	a0,t1,a7
80000382:	0119e8b3          	or	a7,s3,a7
80000386:	0119e7b3          	or	a5,s3,a7
8000038a:	41198433          	sub	s0,s3,a7
8000038e:	98ce                	add	a7,a7,s3
80000390:	ffc60793          	addi	a5,a2,-4
80000394:	0157e7b3          	or	a5,a5,s5
80000398:	ffb58f13          	addi	t5,a1,-5
8000039c:	002f0793          	addi	a5,t5,2
800003a0:	018f66b3          	or	a3,t5,s8
800003a4:	023b8f13          	addi	t5,s7,35
800003a8:	ff7f4c93          	xori	s9,t5,-9
800003ac:	fdef6993          	ori	s3,t5,-34
800003b0:	00cf6d93          	ori	s11,t5,12
800003b4:	006f8593          	addi	a1,t6,6
800003b8:	fec58b93          	addi	s7,a1,-20
800003bc:	fdf5ff93          	andi	t6,a1,-33
800003c0:	fe55ea93          	ori	s5,a1,-27
800003c4:	fdc5e893          	ori	a7,a1,-36
800003c8:	ff228693          	addi	a3,t0,-14
800003cc:	ff96fb13          	andi	s6,a3,-7
800003d0:	0196f8b3          	and	a7,a3,s9
800003d4:	0136e4b3          	or	s1,a3,s3
800003d8:	01d6e4b3          	or	s1,a3,t4
800003dc:	ff36c693          	xori	a3,a3,-13
800003e0:	fefb4d13          	xori	s10,s6,-17
800003e4:	fe8d0f93          	addi	t6,s10,-24
800003e8:	00ce4d93          	xori	s11,t3,12
800003ec:	00fdf8b3          	and	a7,s11,a5
800003f0:	005d88b3          	add	a7,s11,t0
800003f4:	fed6cd93          	xori	s11,a3,-19
800003f8:	fe0dce13          	xori	t3,s11,-32
800003fc:	008de633          	or	a2,s11,s0
80000400:	ffadf813          	andi	a6,s11,-6
80000404:	ff574293          	xori	t0,a4,-11
80000408:	41e28bb3          	sub	s7,t0,t5
8000040c:	0122f3b3          	and	t2,t0,s2
80000410:	ffc2fb93          	andi	s7,t0,-4
80000414:	ffb2f813          	andi	a6,t0,-5
80000418:	ffca4293          	xori	t0,s4,-4
8000041c:	40f28833          	sub	a6,t0,a5
80000420:	00e2e813          	ori	a6,t0,14
80000424:	0122e613          	ori	a2,t0,18
80000428:	40f28f33          	sub	t5,t0,a5
8000042c:	fe72f293          	andi	t0,t0,-25
80000430:	ff22e793          	ori	a5,t0,-14
80000434:	01078433          	add	s0,a5,a6
80000438:	0138eb13          	ori	s6,a7,19
8000043c:	012b0c33          	add	s8,s6,s2
80000440:	feab0c13          	addi	s8,s6,-22
80000444:	ff6a6b93          	ori	s7,s4,-10
80000448:	018b8693          	addi	a3,s7,24
8000044c:	40fb8833          	sub	a6,s7,a5
80000450:	00cb8eb3          	add	t4,s7,a2
80000454:	fdb2e393          	ori	t2,t0,-37
80000458:	0143cfb3          	xor	t6,t2,s4
8000045c:	00a3c2b3          	xor	t0,t2,a0
80000460:	0123c4b3          	xor	s1,t2,s2
80000464:	0153e833          	or	a6,t2,s5
80000468:	fff5e993          	ori	s3,a1,-1
8000046c:	41e98b33          	sub	s6,s3,t5
80000470:	0089fd13          	andi	s10,s3,8
80000474:	00d98833          	add	a6,s3,a3
80000478:	fe39c493          	xori	s1,s3,-29
8000047c:	0179c3b3          	xor	t2,s3,s7
80000480:	fe857293          	andi	t0,a0,-24
80000484:	0152e7b3          	or	a5,t0,s5
80000488:	00537e13          	andi	t3,t1,5
8000048c:	012e4ab3          	xor	s5,t3,s2
80000490:	009e0fb3          	add	t6,t3,s1
80000494:	02457393          	andi	t2,a0,36
80000498:	0173c9b3          	xor	s3,t2,s7
8000049c:	ff13ef93          	ori	t6,t2,-15
800004a0:	0123e413          	ori	s0,t2,18
800004a4:	01acf813          	andi	a6,s9,26
800004a8:	01f848b3          	xor	a7,a6,t6
800004ac:	01586db3          	or	s11,a6,s5
800004b0:	00886713          	ori	a4,a6,8
800004b4:	00b84a13          	xori	s4,a6,11
800004b8:	01dd7e13          	andi	t3,s10,29
800004bc:	01fe0e93          	addi	t4,t3,31
800004c0:	011e06b3          	add	a3,t3,a7
800004c4:	010e4e13          	xori	t3,t3,16
800004c8:	00be4833          	xor	a6,t3,a1
800004cc:	fd8e0913          	addi	s2,t3,-40
800004d0:	00fc0333          	add	t1,s8,a5
800004d4:	41730fb3          	sub	t6,t1,s7
800004d8:	00868a33          	add	s4,a3,s0
800004dc:	020a0593          	addi	a1,s4,32
800004e0:	008a06b3          	add	a3,s4,s0
800004e4:	010386b3          	add	a3,t2,a6
800004e8:	0076eb33          	or	s6,a3,t2
800004ec:	ff36c493          	xori	s1,a3,-13
800004f0:	0266eb93          	ori	s7,a3,38
800004f4:	01fc8ab3          	add	s5,s9,t6
800004f8:	005acab3          	xor	s5,s5,t0
800004fc:	01bac993          	xori	s3,s5,27
80000500:	01eafdb3          	and	s11,s5,t5
80000504:	40ba8733          	sub	a4,s5,a1
80000508:	005805b3          	add	a1,a6,t0
8000050c:	0085c633          	xor	a2,a1,s0
80000510:	0095e8b3          	or	a7,a1,s1
80000514:	01a5c4b3          	xor	s1,a1,s10
80000518:	0205ec13          	ori	s8,a1,32
8000051c:	02258593          	addi	a1,a1,34
80000520:	019b8eb3          	add	t4,s7,s9
80000524:	01d9f5b3          	and	a1,s3,t4
80000528:	01678533          	add	a0,a5,s6
8000052c:	00a2f4b3          	and	s1,t0,a0
80000530:	00ae6633          	or	a2,t3,a0
80000534:	01fa8b33          	add	s6,s5,t6
80000538:	016ffcb3          	and	s9,t6,s6
8000053c:	416f8f33          	sub	t5,t6,s6
80000540:	0169c9b3          	xor	s3,s3,s6
80000544:	01ba0fb3          	add	t6,s4,s11
80000548:	01fdccb3          	xor	s9,s11,t6
8000054c:	01fd8c33          	add	s8,s11,t6
80000550:	01f57ab3          	and	s5,a0,t6
80000554:	01f86533          	or	a0,a6,t6
80000558:	01b78f33          	add	t5,a5,s11
8000055c:	01edc833          	xor	a6,s11,t5
80000560:	01e3ebb3          	or	s7,t2,t5
80000564:	01ecfeb3          	and	t4,s9,t5
80000568:	01e54ab3          	xor	s5,a0,t5
8000056c:	01e948b3          	xor	a7,s2,t5
80000570:	416384b3          	sub	s1,t2,s6
80000574:	fea4c593          	xori	a1,s1,-22
80000578:	413703b3          	sub	t2,a4,s3
8000057c:	01038633          	add	a2,t2,a6
80000580:	fd83cc13          	xori	s8,t2,-40
80000584:	41780eb3          	sub	t4,a6,s7
80000588:	010e8533          	add	a0,t4,a6
8000058c:	010ee433          	or	s0,t4,a6
80000590:	007efcb3          	and	s9,t4,t2
80000594:	40dc8a33          	sub	s4,s9,a3
80000598:	021a6613          	ori	a2,s4,33
8000059c:	00ca6933          	or	s2,s4,a2
800005a0:	016a0313          	addi	t1,s4,22
800005a4:	412a0833          	sub	a6,s4,s2
800005a8:	41750eb3          	sub	t4,a0,s7
800005ac:	416e8533          	sub	a0,t4,s6
800005b0:	ff1ec313          	xori	t1,t4,-15
800005b4:	014e83b3          	add	t2,t4,s4
800005b8:	011ecdb3          	xor	s11,t4,a7
800005bc:	ff4ef393          	andi	t2,t4,-12
800005c0:	41328ab3          	sub	s5,t0,s3
800005c4:	01598db3          	add	s11,s3,s5
800005c8:	40698ab3          	sub	s5,s3,t1
800005cc:	01574b33          	xor	s6,a4,s5
800005d0:	01574f33          	xor	t5,a4,s5
800005d4:	40ef0933          	sub	s2,t5,a4
800005d8:	0126e533          	or	a0,a3,s2
800005dc:	9936                	add	s2,s2,a3
800005de:	01240b33          	add	s6,s0,s2
800005e2:	41b78bb3          	sub	s7,a5,s11
800005e6:	417d8f33          	sub	t5,s11,s7
800005ea:	41740ab3          	sub	s5,s0,s7
800005ee:	017f8333          	add	t1,t6,s7
800005f2:	017e6c33          	or	s8,t3,s7
800005f6:	406f8833          	sub	a6,t6,t1
800005fa:	01074b33          	xor	s6,a4,a6
800005fe:	01077cb3          	and	s9,a4,a6
80000602:	01064f33          	xor	t5,a2,a6
80000606:	0103cb33          	xor	s6,t2,a6
8000060a:	01038533          	add	a0,t2,a6
8000060e:	0114c633          	xor	a2,s1,a7
80000612:	00d607b3          	add	a5,a2,a3
80000616:	01c5cfb3          	xor	t6,a1,t3
8000061a:	ff3fcd13          	xori	s10,t6,-13
8000061e:	00affcb3          	and	s9,t6,a0
80000622:	009e4a33          	xor	s4,t3,s1
80000626:	01ba0333          	add	t1,s4,s11
8000062a:	407a07b3          	sub	a5,s4,t2
8000062e:	00ea75b3          	and	a1,s4,a4
80000632:	00fbc433          	xor	s0,s7,a5
80000636:	fe444d93          	xori	s11,s0,-28
8000063a:	00646913          	ori	s2,s0,6
8000063e:	40b409b3          	sub	s3,s0,a1
80000642:	01a404b3          	add	s1,s0,s10
80000646:	00cacbb3          	xor	s7,s5,a2
8000064a:	fe1b8c13          	addi	s8,s7,-31
8000064e:	417b88b3          	sub	a7,s7,s7
80000652:	018bc493          	xori	s1,s7,24
80000656:	00fbcdb3          	xor	s11,s7,a5
8000065a:	ff3bed93          	ori	s11,s7,-13
8000065e:	011c43b3          	xor	t2,s8,a7
80000662:	0075f4b3          	and	s1,a1,t2
80000666:	017d4fb3          	xor	t6,s10,s7
8000066a:	01f3c733          	xor	a4,t2,t6
8000066e:	01fe84b3          	add	s1,t4,t6
80000672:	0096c333          	xor	t1,a3,s1
80000676:	0063f533          	and	a0,t2,t1
8000067a:	0063f533          	and	a0,t2,t1
8000067e:	0063ceb3          	xor	t4,t2,t1
80000682:	0166c8b3          	xor	a7,a3,s6
80000686:	411f09b3          	sub	s3,t5,a7
8000068a:	0119c2b3          	xor	t0,s3,a7
8000068e:	0113c433          	xor	s0,t2,a7
80000692:	011cce33          	xor	t3,s9,a7
80000696:	01984db3          	xor	s11,a6,s9
8000069a:	01bcc933          	xor	s2,s9,s11
8000069e:	01bc8533          	add	a0,s9,s11
800006a2:	01bc0833          	add	a6,s8,s11
800006a6:	01beccb3          	xor	s9,t4,s11
800006aa:	41b90eb3          	sub	t4,s2,s11
800006ae:	016fe533          	or	a0,t6,s6
800006b2:	41450b33          	sub	s6,a0,s4
800006b6:	00c4e733          	or	a4,s1,a2
800006ba:	40970333          	sub	t1,a4,s1
800006be:	01f76933          	or	s2,a4,t6
800006c2:	010d6ab3          	or	s5,s10,a6
800006c6:	007af313          	andi	t1,s5,7
800006ca:	007a8f93          	addi	t6,s5,7
800006ce:	ff8a8413          	addi	s0,s5,-8
800006d2:	00b76c33          	or	s8,a4,a1
800006d6:	00ac4e33          	xor	t3,s8,a0
800006da:	417c0733          	sub	a4,s8,s7
800006de:	005c0b33          	add	s6,s8,t0
800006e2:	00cc4eb3          	xor	t4,s8,a2
800006e6:	00f9ef33          	or	t5,s3,a5
800006ea:	01bf0293          	addi	t0,t5,27
800006ee:	010f7ab3          	and	s5,t5,a6
800006f2:	40ff0933          	sub	s2,t5,a5
800006f6:	002f4713          	xori	a4,t5,2
800006fa:	014f44b3          	xor	s1,t5,s4
800006fe:	01466933          	or	s2,a2,s4
80000702:	0122cb33          	xor	s6,t0,s2
80000706:	00ce6d33          	or	s10,t3,a2
8000070a:	41a607b3          	sub	a5,a2,s10
8000070e:	41ae0e33          	sub	t3,t3,s10
80000712:	019e6a33          	or	s4,t3,s9
80000716:	014ce5b3          	or	a1,s9,s4
8000071a:	9a5a                	add	s4,s4,s6
8000071c:	014b7d33          	and	s10,s6,s4
80000720:	0189e933          	or	s2,s3,s8
80000724:	0129c6b3          	xor	a3,s3,s2
80000728:	0123f3b3          	and	t2,t2,s2
8000072c:	412384b3          	sub	s1,t2,s2
80000730:	0123ffb3          	and	t6,t2,s2
80000734:	01aee633          	or	a2,t4,s10
80000738:	00c409b3          	add	s3,s0,a2
8000073c:	00caedb3          	or	s11,s5,a2
80000740:	00c54d33          	xor	s10,a0,a2
80000744:	00cd7fb3          	and	t6,s10,a2
80000748:	00cd0433          	add	s0,s10,a2
8000074c:	012ef7b3          	and	a5,t4,s2
80000750:	0177e593          	ori	a1,a5,23
80000754:	0066fab3          	and	s5,a3,t1
80000758:	01da8f93          	addi	t6,s5,29
8000075c:	01aaec33          	or	s8,s5,s10
80000760:	0182f8b3          	and	a7,t0,s8
80000764:	01e8ef33          	or	t5,a7,t5
80000768:	01b8f713          	andi	a4,a7,27
8000076c:	fe188993          	addi	s3,a7,-31
80000770:	0174fcb3          	and	s9,s1,s7
80000774:	ff2c8513          	addi	a0,s9,-14
80000778:	017cce33          	xor	t3,s9,s7
8000077c:	fefcf313          	andi	t1,s9,-17
80000780:	00dcf4b3          	and	s1,s9,a3
80000784:	00e97eb3          	and	t4,s2,a4
80000788:	019ecc33          	xor	s8,t4,s9
8000078c:	006eca33          	xor	s4,t4,t1
80000790:	007ef533          	and	a0,t4,t2
80000794:	00eef433          	and	s0,t4,a4
80000798:	00bec5b3          	xor	a1,t4,a1
8000079c:	0152f333          	and	t1,t0,s5
800007a0:	006c7f33          	and	t5,s8,t1
800007a4:	016ef3b3          	and	t2,t4,s6
800007a8:	007b4633          	xor	a2,s6,t2
800007ac:	407b8a33          	sub	s4,s7,t2
800007b0:	00bffe33          	and	t3,t6,a1
800007b4:	01c2ff33          	and	t5,t0,t3
800007b8:	01ce0333          	add	t1,t3,t3
800007bc:	01ca0ab3          	add	s5,s4,t3
800007c0:	011ffab3          	and	s5,t6,a7
800007c4:	415485b3          	sub	a1,s1,s5
800007c8:	0154ccb3          	xor	s9,s1,s5
800007cc:	01564a33          	xor	s4,a2,s5
800007d0:	015ef433          	and	s0,t4,s5
800007d4:	010cf933          	and	s2,s9,a6
800007d8:	012806b3          	add	a3,a6,s2
800007dc:	01284333          	xor	t1,a6,s2
800007e0:	01286833          	or	a6,a6,s2
800007e4:	01267e33          	and	t3,a2,s2
800007e8:	012d02b3          	add	t0,s10,s2
800007ec:	ff5d8913          	addi	s2,s11,-11
800007f0:	412906b3          	sub	a3,s2,s2
800007f4:	fe230893          	addi	a7,t1,-30
800007f8:	0288c713          	xori	a4,a7,40
800007fc:	fe688a93          	addi	s5,a7,-26
80000800:	fdbe8d93          	addi	s11,t4,-37
80000804:	00dd8b33          	add	s6,s11,a3
80000808:	01fdf933          	and	s2,s11,t6
8000080c:	017dc933          	xor	s2,s11,s7
80000810:	00fc8b93          	addi	s7,s9,15
80000814:	019bc633          	xor	a2,s7,s9
80000818:	40ab86b3          	sub	a3,s7,a0
8000081c:	019be733          	or	a4,s7,s9
80000820:	40bb8eb3          	sub	t4,s7,a1
80000824:	005a0993          	addi	s3,s4,5
80000828:	fe99c413          	xori	s0,s3,-23
8000082c:	ffd9ff13          	andi	t5,s3,-3
80000830:	00898793          	addi	a5,s3,8
80000834:	0079cd33          	xor	s10,s3,t2
80000838:	0169e833          	or	a6,s3,s6
8000083c:	fde6cd93          	xori	s11,a3,-34
80000840:	008dcd93          	xori	s11,s11,8
80000844:	01be4413          	xori	s0,t3,27
80000848:	00744513          	xori	a0,s0,7
8000084c:	01e47993          	andi	s3,s0,30
80000850:	027c4513          	xori	a0,s8,39
80000854:	00c54613          	xori	a2,a0,12
80000858:	01b50d33          	add	s10,a0,s11
8000085c:	410506b3          	sub	a3,a0,a6
80000860:	025e4a93          	xori	s5,t3,37
80000864:	008acc93          	xori	s9,s5,8
80000868:	01dacab3          	xor	s5,s5,t4
8000086c:	fdcafb13          	andi	s6,s5,-36
80000870:	414a8533          	sub	a0,s5,s4
80000874:	0265c513          	xori	a0,a1,38
80000878:	00454d93          	xori	s11,a0,4
8000087c:	40a50833          	sub	a6,a0,a0
80000880:	02050513          	addi	a0,a0,32
80000884:	fdf57493          	andi	s1,a0,-33
80000888:	ff054413          	xori	s0,a0,-16
8000088c:	fdc66293          	ori	t0,a2,-36
80000890:	00e2e513          	ori	a0,t0,14
80000894:	016eef13          	ori	t5,t4,22
80000898:	00bf7eb3          	and	t4,t5,a1
8000089c:	405f0f33          	sub	t5,t5,t0
800008a0:	ff7c6393          	ori	t2,s8,-9
800008a4:	41938ab3          	sub	s5,t2,s9
800008a8:	40d38e33          	sub	t3,t2,a3
800008ac:	fff3c913          	not	s2,t2
800008b0:	00cb6913          	ori	s2,s6,12
800008b4:	ff990313          	addi	t1,s2,-7
800008b8:	01b96433          	or	s0,s2,s11
800008bc:	fe790f93          	addi	t6,s2,-25
800008c0:	fd890c13          	addi	s8,s2,-40
800008c4:	fee86613          	ori	a2,a6,-18
800008c8:	ffe60413          	addi	s0,a2,-2
800008cc:	fe864513          	xori	a0,a2,-24
800008d0:	00567d33          	and	s10,a2,t0
800008d4:	00f64f33          	xor	t5,a2,a5
800008d8:	00a60933          	add	s2,a2,a0
800008dc:	ff34f713          	andi	a4,s1,-13
800008e0:	01a74913          	xori	s2,a4,26
800008e4:	ff3afd93          	andi	s11,s5,-13
800008e8:	40dd82b3          	sub	t0,s11,a3
800008ec:	028dfd93          	andi	s11,s11,40
800008f0:	fdaff513          	andi	a0,t6,-38
800008f4:	01c50ab3          	add	s5,a0,t3
800008f8:	40850db3          	sub	s11,a0,s0
800008fc:	01750713          	addi	a4,a0,23
80000900:	ff75f393          	andi	t2,a1,-9
80000904:	00d385b3          	add	a1,t2,a3
80000908:	40a38e33          	sub	t3,t2,a0
8000090c:	00f3fe33          	and	t3,t2,a5
80000910:	0193fcb3          	and	s9,t2,s9
80000914:	022a7413          	andi	s0,s4,34
80000918:	01a445b3          	xor	a1,s0,s10
8000091c:	01644e93          	xori	t4,s0,22
80000920:	fe047b93          	andi	s7,s0,-32
80000924:	fdd40813          	addi	a6,s0,-35
80000928:	40c40b33          	sub	s6,s0,a2
8000092c:	d4f28013          	addi	zero,t0,-689
80000930:	f2030013          	addi	zero,t1,-224
80000934:	2bd38013          	addi	zero,t2,701
80000938:	f5c40013          	addi	zero,s0,-164
8000093c:	1ea48013          	addi	zero,s1,490
80000940:	30150013          	addi	zero,a0,769
80000944:	05f58013          	addi	zero,a1,95
80000948:	e6c60013          	addi	zero,a2,-404
8000094c:	ceb68013          	addi	zero,a3,-789
80000950:	23170013          	addi	zero,a4,561
80000954:	34178013          	addi	zero,a5,833
80000958:	0de80013          	addi	zero,a6,222
8000095c:	d6788013          	addi	zero,a7,-665
80000960:	20090013          	addi	zero,s2,512
80000964:	ead98013          	addi	zero,s3,-339
80000968:	254a0013          	addi	zero,s4,596
8000096c:	077a8013          	addi	zero,s5,119
80000970:	1e8b0013          	addi	zero,s6,488
80000974:	ffeb8013          	addi	zero,s7,-2
80000978:	e14c0013          	addi	zero,s8,-492
8000097c:	1d9c8013          	addi	zero,s9,473
80000980:	cc9d0013          	addi	zero,s10,-823
80000984:	304d8013          	addi	zero,s11,772
80000988:	302e0013          	addi	zero,t3,770
8000098c:	167e8013          	addi	zero,t4,359
80000990:	dcdf0013          	addi	zero,t5,-563
80000994:	d53f8013          	addi	zero,t6,-685
80000998:	01a38f33          	add	t5,t2,s10
8000099c:	1f69                	addi	t5,t5,-6
8000099e:	01d78a33          	add	s4,a5,t4
800009a2:	feaa6693          	ori	a3,s4,-22
800009a6:	feea6b93          	ori	s7,s4,-18
800009aa:	01658d33          	add	s10,a1,s6
800009ae:	417d0db3          	sub	s11,s10,s7
800009b2:	01bd6f33          	or	t5,s10,s11
800009b6:	010d0633          	add	a2,s10,a6
800009ba:	00fe8c33          	add	s8,t4,a5
800009be:	feec4f93          	xori	t6,s8,-18
800009c2:	01fc7793          	andi	a5,s8,31
800009c6:	005c0933          	add	s2,s8,t0
800009ca:	ff4c0a93          	addi	s5,s8,-12
800009ce:	00ef0933          	add	s2,t5,a4
800009d2:	9aca                	add	s5,s5,s2
800009d4:	00a947b3          	xor	a5,s2,a0
800009d8:	01597313          	andi	t1,s2,21
800009dc:	00f94613          	xori	a2,s2,15
800009e0:	ffb94613          	xori	a2,s2,-5
800009e4:	00e589b3          	add	s3,a1,a4
800009e8:	01360eb3          	add	t4,a2,s3
800009ec:	01f90eb3          	add	t4,s2,t6
800009f0:	01d50d33          	add	s10,a0,t4
800009f4:	01d563b3          	or	t2,a0,t4
800009f8:	00f50eb3          	add	t4,a0,a5
800009fc:	01dac433          	xor	s0,s5,t4
80000a00:	41da8b33          	sub	s6,s5,t4
80000a04:	01dafc33          	and	s8,s5,t4
80000a08:	01950bb3          	add	s7,a0,s9
80000a0c:	017eeab3          	or	s5,t4,s7
80000a10:	017ae533          	or	a0,s5,s7
80000a14:	017a87b3          	add	a5,s5,s7
80000a18:	417a8f33          	sub	t5,s5,s7
80000a1c:	01e70b33          	add	s6,a4,t5
80000a20:	016cf933          	and	s2,s9,s6
80000a24:	016ce533          	or	a0,s9,s6
80000a28:	416c88b3          	sub	a7,s9,s6
80000a2c:	016ccc33          	xor	s8,s9,s6
80000a30:	016ccd33          	xor	s10,s9,s6
80000a34:	410988b3          	sub	a7,s3,a6
80000a38:	ff88c713          	xori	a4,a7,-8
80000a3c:	41e68d33          	sub	s10,a3,t5
80000a40:	013d4eb3          	xor	t4,s10,s3
80000a44:	010d6e33          	or	t3,s10,a6
80000a48:	416b8d33          	sub	s10,s7,s6
80000a4c:	01cd7393          	andi	t2,s10,28
80000a50:	406d0f33          	sub	t5,s10,t1
80000a54:	011d0633          	add	a2,s10,a7
80000a58:	41de07b3          	sub	a5,t3,t4
80000a5c:	01778713          	addi	a4,a5,23
80000a60:	ffc78693          	addi	a3,a5,-4
80000a64:	ff07ea93          	ori	s5,a5,-16
80000a68:	40d78533          	sub	a0,a5,a3
80000a6c:	405b0633          	sub	a2,s6,t0
80000a70:	00860833          	add	a6,a2,s0
80000a74:	41660eb3          	sub	t4,a2,s6
80000a78:	01267a33          	and	s4,a2,s2
80000a7c:	00e64793          	xori	a5,a2,14
80000a80:	41460c33          	sub	s8,a2,s4
80000a84:	40828533          	sub	a0,t0,s0
80000a88:	00a446b3          	xor	a3,s0,a0
80000a8c:	40bd8cb3          	sub	s9,s11,a1
80000a90:	95e6                	add	a1,a1,s9
80000a92:	019b78b3          	and	a7,s6,s9
80000a96:	414f8733          	sub	a4,t6,s4
80000a9a:	00e70433          	add	s0,a4,a4
80000a9e:	00e765b3          	or	a1,a4,a4
80000aa2:	40e706b3          	sub	a3,a4,a4
80000aa6:	40b38833          	sub	a6,t2,a1
80000aaa:	010ce6b3          	or	a3,s9,a6
80000aae:	010ccf33          	xor	t5,s9,a6
80000ab2:	010cc6b3          	xor	a3,s9,a6
80000ab6:	010ce2b3          	or	t0,s9,a6
80000aba:	406a0fb3          	sub	t6,s4,t1
80000abe:	41fc85b3          	sub	a1,s9,t6
80000ac2:	01f8efb3          	or	t6,a7,t6
80000ac6:	01f889b3          	add	s3,a7,t6
80000aca:	01facfb3          	xor	t6,s5,t6
80000ace:	01fa86b3          	add	a3,s5,t6
80000ad2:	00954db3          	xor	s11,a0,s1
80000ad6:	018de313          	ori	t1,s11,24
80000ada:	005946b3          	xor	a3,s2,t0
80000ade:	fe06c613          	xori	a2,a3,-32
80000ae2:	0286fa13          	andi	s4,a3,40
80000ae6:	00734bb3          	xor	s7,t1,t2
80000aea:	40bb8e33          	sub	t3,s7,a1
80000aee:	409b8c33          	sub	s8,s7,s1
80000af2:	017beb93          	ori	s7,s7,23
80000af6:	01134733          	xor	a4,t1,a7
80000afa:	00570a33          	add	s4,a4,t0
80000afe:	009708b3          	add	a7,a4,s1
80000b02:	01174b33          	xor	s6,a4,a7
80000b06:	01d76b33          	or	s6,a4,t4
80000b0a:	005a4e33          	xor	t3,s4,t0
80000b0e:	fdce0893          	addi	a7,t3,-36
80000b12:	fefe6413          	ori	s0,t3,-17
80000b16:	007e0513          	addi	a0,t3,7
80000b1a:	fede7993          	andi	s3,t3,-19
80000b1e:	019e6d13          	ori	s10,t3,25
80000b22:	0122c3b3          	xor	t2,t0,s2
80000b26:	40790b33          	sub	s6,s2,t2
80000b2a:	00aa4bb3          	xor	s7,s4,a0
80000b2e:	017f49b3          	xor	s3,t5,s7
80000b32:	0179c4b3          	xor	s1,s3,s7
80000b36:	01dbc433          	xor	s0,s7,t4
80000b3a:	008efa33          	and	s4,t4,s0
80000b3e:	0089efb3          	or	t6,s3,s0
80000b42:	00898933          	add	s2,s3,s0
80000b46:	005dc733          	xor	a4,s11,t0
80000b4a:	00ee7933          	and	s2,t3,a4
80000b4e:	00e683b3          	add	t2,a3,a4
80000b52:	00e87733          	and	a4,a6,a4
80000b56:	00e7e3b3          	or	t2,a5,a4
80000b5a:	009ac433          	xor	s0,s5,s1
80000b5e:	008483b3          	add	t2,s1,s0
80000b62:	0084fa33          	and	s4,s1,s0
80000b66:	0084ecb3          	or	s9,s1,s0
80000b6a:	8c81                	sub	s1,s1,s0
80000b6c:	00848533          	add	a0,s1,s0
80000b70:	00f6e633          	or	a2,a3,a5
80000b74:	00f64593          	xori	a1,a2,15
80000b78:	01a76db3          	or	s11,a4,s10
80000b7c:	005dcb33          	xor	s6,s11,t0
80000b80:	016d8bb3          	add	s7,s11,s6
80000b84:	01a2eeb3          	or	t4,t0,s10
80000b88:	00eec593          	xori	a1,t4,14
80000b8c:	ffbec993          	xori	s3,t4,-5
80000b90:	026e8513          	addi	a0,t4,38
80000b94:	00646cb3          	or	s9,s0,t1
80000b98:	019cf633          	and	a2,s9,s9
80000b9c:	010cf8b3          	and	a7,s9,a6
80000ba0:	ff6cfb93          	andi	s7,s9,-10
80000ba4:	00ecc993          	xori	s3,s9,14
80000ba8:	00646bb3          	or	s7,s0,t1
80000bac:	015b8c13          	addi	s8,s7,21
80000bb0:	00fb8d93          	addi	s11,s7,15
80000bb4:	013bc6b3          	xor	a3,s7,s3
80000bb8:	00ebcc33          	xor	s8,s7,a4
80000bbc:	00cbf733          	and	a4,s7,a2
80000bc0:	01bbe8b3          	or	a7,s7,s11
80000bc4:	01176733          	or	a4,a4,a7
80000bc8:	00b96a33          	or	s4,s2,a1
80000bcc:	0145eab3          	or	s5,a1,s4
80000bd0:	0145fa33          	and	s4,a1,s4
80000bd4:	01ca6833          	or	a6,s4,t3
80000bd8:	010e0db3          	add	s11,t3,a6
80000bdc:	01074e33          	xor	t3,a4,a6
80000be0:	01070bb3          	add	s7,a4,a6
80000be4:	01696f33          	or	t5,s2,s6
80000be8:	41ef86b3          	sub	a3,t6,t5
80000bec:	01e90d33          	add	s10,s2,t5
80000bf0:	41ee85b3          	sub	a1,t4,t5
80000bf4:	01eb45b3          	xor	a1,s6,t5
80000bf8:	01246f33          	or	t5,s0,s2
80000bfc:	01e94733          	xor	a4,s2,t5
80000c00:	41e38533          	sub	a0,t2,t5
80000c04:	01ea74b3          	and	s1,s4,t5
80000c08:	41e30eb3          	sub	t4,t1,t5
80000c0c:	41e30eb3          	sub	t4,t1,t5
80000c10:	00cff433          	and	s0,t6,a2
80000c14:	01a44e33          	xor	t3,s0,s10
80000c18:	008c7e33          	and	t3,s8,s0
80000c1c:	013e7e33          	and	t3,t3,s3
80000c20:	026e7693          	andi	a3,t3,38
80000c24:	019e7933          	and	s2,t3,s9
80000c28:	994e                	add	s2,s2,s3
80000c2a:	01390cb3          	add	s9,s2,s3
80000c2e:	010907b3          	add	a5,s2,a6
80000c32:	01a4f6b3          	and	a3,s1,s10
80000c36:	0186cab3          	xor	s5,a3,s8
80000c3a:	fdf68a93          	addi	s5,a3,-33
80000c3e:	ffd6e793          	ori	a5,a3,-3
80000c42:	01d6c833          	xor	a6,a3,t4
80000c46:	011cffb3          	and	t6,s9,a7
80000c4a:	01bf84b3          	add	s1,t6,s11
80000c4e:	018ff513          	andi	a0,t6,24
80000c52:	00fff713          	andi	a4,t6,15
80000c56:	00efefb3          	or	t6,t6,a4
80000c5a:	022fea13          	ori	s4,t6,34
80000c5e:	01bb7cb3          	and	s9,s6,s11
80000c62:	019d0833          	add	a6,s10,s9
80000c66:	01197c33          	and	s8,s2,a7
80000c6a:	0188ecb3          	or	s9,a7,s8
80000c6e:	018a68b3          	or	a7,s4,s8
80000c72:	00767f33          	and	t5,a2,t2
80000c76:	01e50fb3          	add	t6,a0,t5
80000c7a:	41e90b33          	sub	s6,s2,t5
80000c7e:	01e96633          	or	a2,s2,t5
80000c82:	00cdfbb3          	and	s7,s11,a2
80000c86:	017a8cb3          	add	s9,s5,s7
80000c8a:	01790733          	add	a4,s2,s7
80000c8e:	017d8533          	add	a0,s11,s7
80000c92:	417d88b3          	sub	a7,s11,s7
80000c96:	01abfc33          	and	s8,s7,s10
80000c9a:	018d66b3          	or	a3,s10,s8
80000c9e:	018d6333          	or	t1,s10,s8
80000ca2:	018d76b3          	and	a3,s10,s8
80000ca6:	018ae4b3          	or	s1,s5,s8
80000caa:	018af2b3          	and	t0,s5,s8
80000cae:	fefd8513          	addi	a0,s11,-17
80000cb2:	00656533          	or	a0,a0,t1
80000cb6:	00740793          	addi	a5,s0,7
80000cba:	0117f493          	andi	s1,a5,17
80000cbe:	fe078a93          	addi	s5,a5,-32
80000cc2:	ff588293          	addi	t0,a7,-11
80000cc6:	00928f13          	addi	t5,t0,9
80000cca:	fe42fe93          	andi	t4,t0,-28
80000cce:	01828793          	addi	a5,t0,24
80000cd2:	018c0813          	addi	a6,s8,24
80000cd6:	00f86e93          	ori	t4,a6,15
80000cda:	01780db3          	add	s11,a6,s7
80000cde:	fee80b13          	addi	s6,a6,-18
80000ce2:	007868b3          	or	a7,a6,t2
80000ce6:	fe1f0b93          	addi	s7,t5,-31
80000cea:	007b8733          	add	a4,s7,t2
80000cee:	01dbe933          	or	s2,s7,t4
80000cf2:	405b89b3          	sub	s3,s7,t0
80000cf6:	40bb8533          	sub	a0,s7,a1
80000cfa:	018bcb33          	xor	s6,s7,s8
80000cfe:	023b4893          	xori	a7,s6,35
80000d02:	02288d93          	addi	s11,a7,34
80000d06:	fe574493          	xori	s1,a4,-27
80000d0a:	fde4e513          	ori	a0,s1,-34
80000d0e:	fe74ed13          	ori	s10,s1,-25
80000d12:	fe97c493          	xori	s1,a5,-23
80000d16:	40a48fb3          	sub	t6,s1,a0
80000d1a:	01a4cf33          	xor	t5,s1,s10
80000d1e:	0154e493          	ori	s1,s1,21
80000d22:	ff964b13          	xori	s6,a2,-7
80000d26:	007b6db3          	or	s11,s6,t2
80000d2a:	fe5b7d93          	andi	s11,s6,-27
80000d2e:	00eb4533          	xor	a0,s6,a4
80000d32:	414b05b3          	sub	a1,s6,s4
80000d36:	fef5c513          	xori	a0,a1,-17
80000d3a:	ffc57793          	andi	a5,a0,-4
80000d3e:	00650633          	add	a2,a0,t1
80000d42:	01650733          	add	a4,a0,s6
80000d46:	01757c13          	andi	s8,a0,23
80000d4a:	01454293          	xori	t0,a0,20
80000d4e:	fe1b6c93          	ori	s9,s6,-31
80000d52:	00ecf7b3          	and	a5,s9,a4
80000d56:	ff3bec13          	ori	s8,s7,-13
80000d5a:	00ac04b3          	add	s1,s8,a0
80000d5e:	ff9c6d13          	ori	s10,s8,-7
80000d62:	004ee813          	ori	a6,t4,4
80000d66:	ff784513          	xori	a0,a6,-9
80000d6a:	00886db3          	or	s11,a6,s0
80000d6e:	01784a33          	xor	s4,a6,s7
80000d72:	ffda6a93          	ori	s5,s4,-3
80000d76:	008af8b3          	and	a7,s5,s0
80000d7a:	012aea93          	ori	s5,s5,18
80000d7e:	fe2af593          	andi	a1,s5,-30
80000d82:	018a8b13          	addi	s6,s5,24
80000d86:	ff266713          	ori	a4,a2,-14
80000d8a:	41570433          	sub	s0,a4,s5
80000d8e:	01476ab3          	or	s5,a4,s4
80000d92:	006744b3          	xor	s1,a4,t1
80000d96:	01e74293          	xori	t0,a4,30
80000d9a:	01a70b33          	add	s6,a4,s10
80000d9e:	00197593          	andi	a1,s2,1
80000da2:	0095cd13          	xori	s10,a1,9
80000da6:	0263f993          	andi	s3,t2,38
80000daa:	0029ff93          	andi	t6,s3,2
80000dae:	00b9fd33          	and	s10,s3,a1
80000db2:	ffb5f413          	andi	s0,a1,-5
80000db6:	ff346b93          	ori	s7,s0,-13
80000dba:	00647fb3          	and	t6,s0,t1
80000dbe:	00a40f33          	add	t5,s0,a0
80000dc2:	001bf313          	andi	t1,s7,1
80000dc6:	fe537b93          	andi	s7,t1,-27
80000dca:	01f36f33          	or	t5,t1,t6
80000dce:	01030cb3          	add	s9,t1,a6
80000dd2:	01d37613          	andi	a2,t1,29
80000dd6:	025e7693          	andi	a3,t3,37
80000dda:	0156cc33          	xor	s8,a3,s5
80000dde:	fdf6cb93          	xori	s7,a3,-33
80000de2:	0266ca13          	xori	s4,a3,38
80000de6:	0096f2b3          	and	t0,a3,s1
80000dea:	40868c33          	sub	s8,a3,s0
80000dee:	018d89b3          	add	s3,s11,s8
80000df2:	00c9fd13          	andi	s10,s3,12
80000df6:	01c30b33          	add	s6,t1,t3
80000dfa:	01fb4533          	xor	a0,s6,t6
80000dfe:	019b7433          	and	s0,s6,s9
80000e02:	01d48c33          	add	s8,s1,t4
80000e06:	00ec7913          	andi	s2,s8,14
80000e0a:	feac0813          	addi	a6,s8,-22
80000e0e:	00ac0ab3          	add	s5,s8,a0
80000e12:	00640933          	add	s2,s0,t1
80000e16:	ff196993          	ori	s3,s2,-15
80000e1a:	00b96d33          	or	s10,s2,a1
80000e1e:	01c97933          	and	s2,s2,t3
80000e22:	ff497313          	andi	t1,s2,-12
80000e26:	01dd0633          	add	a2,s10,t4
80000e2a:	ffc64893          	xori	a7,a2,-4
80000e2e:	01260813          	addi	a6,a2,18
80000e32:	40a60d33          	sub	s10,a2,a0
80000e36:	01464db3          	xor	s11,a2,s4
80000e3a:	41260833          	sub	a6,a2,s2
80000e3e:	006d0633          	add	a2,s10,t1
80000e42:	40cf0533          	sub	a0,t5,a2
80000e46:	01978c33          	add	s8,a5,s9
80000e4a:	018cf7b3          	and	a5,s9,s8
80000e4e:	418a8bb3          	sub	s7,s5,s8
80000e52:	00870bb3          	add	s7,a4,s0
80000e56:	01747733          	and	a4,s0,s7
80000e5a:	01740ab3          	add	s5,s0,s7
80000e5e:	017478b3          	and	a7,s0,s7
80000e62:	00740f33          	add	t5,s0,t2
80000e66:	01e44333          	xor	t1,s0,t5
80000e6a:	01e46633          	or	a2,s0,t5
80000e6e:	41e40733          	sub	a4,s0,t5
80000e72:	01e74c33          	xor	s8,a4,t5
80000e76:	00ed8b33          	add	s6,s11,a4
80000e7a:	01676bb3          	or	s7,a4,s6
80000e7e:	016774b3          	and	s1,a4,s6
80000e82:	416706b3          	sub	a3,a4,s6
80000e86:	416703b3          	sub	t2,a4,s6
80000e8a:	416685b3          	sub	a1,a3,s6
80000e8e:	41568a33          	sub	s4,a3,s5
80000e92:	00ea46b3          	xor	a3,s4,a4
80000e96:	419885b3          	sub	a1,a7,s9
80000e9a:	fde5ea93          	ori	s5,a1,-34
80000e9e:	417584b3          	sub	s1,a1,s7
80000ea2:	41d509b3          	sub	s3,a0,t4
80000ea6:	0189e533          	or	a0,s3,s8
80000eaa:	0119e533          	or	a0,s3,a7
80000eae:	02698f13          	addi	t5,s3,38
80000eb2:	41988533          	sub	a0,a7,s9
80000eb6:	01e57433          	and	s0,a0,t5
80000eba:	007543b3          	xor	t2,a0,t2
80000ebe:	01257bb3          	and	s7,a0,s2
80000ec2:	fe956b13          	ori	s6,a0,-23
80000ec6:	419e0a33          	sub	s4,t3,s9
80000eca:	027a6893          	ori	a7,s4,39
80000ece:	006a0d33          	add	s10,s4,t1
80000ed2:	007a7f33          	and	t5,s4,t2
80000ed6:	1a19                	addi	s4,s4,-26
80000ed8:	005a4993          	xori	s3,s4,5
80000edc:	41ed0b33          	sub	s6,s10,t5
80000ee0:	01648533          	add	a0,s1,s6
80000ee4:	416287b3          	sub	a5,t0,s6
80000ee8:	40fb0933          	sub	s2,s6,a5
80000eec:	00fb08b3          	add	a7,s6,a5
80000ef0:	41c98ab3          	sub	s5,s3,t3
80000ef4:	015e4bb3          	xor	s7,t3,s5
80000ef8:	015e4733          	xor	a4,t3,s5
80000efc:	01598a33          	add	s4,s3,s5
80000f00:	41060cb3          	sub	s9,a2,a6
80000f04:	419f8cb3          	sub	s9,t6,s9
80000f08:	01988eb3          	add	t4,a7,s9
80000f0c:	419885b3          	sub	a1,a7,s9
80000f10:	019602b3          	add	t0,a2,s9
80000f14:	411b0d33          	sub	s10,s6,a7
80000f18:	01ae79b3          	and	s3,t3,s10
80000f1c:	41a28433          	sub	s0,t0,s10
80000f20:	41a98eb3          	sub	t4,s3,s10
80000f24:	01a6fa33          	and	s4,a3,s10
80000f28:	01abe3b3          	or	t2,s7,s10
80000f2c:	006acd33          	xor	s10,s5,t1
80000f30:	010d4513          	xori	a0,s10,16
80000f34:	007c4d33          	xor	s10,s8,t2
80000f38:	013d6933          	or	s2,s10,s3
80000f3c:	005d4a33          	xor	s4,s10,t0
80000f40:	01074fb3          	xor	t6,a4,a6
80000f44:	01ef8933          	add	s2,t6,t5
80000f48:	008fea13          	ori	s4,t6,8
80000f4c:	018fec33          	or	s8,t6,s8
80000f50:	007ac4b3          	xor	s1,s5,t2
80000f54:	0144c633          	xor	a2,s1,s4
80000f58:	00f4e993          	ori	s3,s1,15
80000f5c:	0054c333          	xor	t1,s1,t0
80000f60:	00b48833          	add	a6,s1,a1
80000f64:	011c44b3          	xor	s1,s8,a7
80000f68:	0114ce33          	xor	t3,s1,a7
80000f6c:	0104e833          	or	a6,s1,a6
80000f70:	407485b3          	sub	a1,s1,t2
80000f74:	00e48db3          	add	s11,s1,a4
80000f78:	14e9                	addi	s1,s1,-6
80000f7a:	00abcb33          	xor	s6,s7,a0
80000f7e:	01650eb3          	add	t4,a0,s6
80000f82:	00dec9b3          	xor	s3,t4,a3
80000f86:	0136e933          	or	s2,a3,s3
80000f8a:	0136c733          	xor	a4,a3,s3
80000f8e:	012a4533          	xor	a0,s4,s2
80000f92:	8d45                	or	a0,a0,s1
80000f94:	40a48f33          	sub	t5,s1,a0
80000f98:	00a483b3          	add	t2,s1,a0
80000f9c:	01cf4b33          	xor	s6,t5,t3
80000fa0:	01660ab3          	add	s5,a2,s6
80000fa4:	016f8533          	add	a0,t6,s6
80000fa8:	016fc933          	xor	s2,t6,s6
80000fac:	0163e2b3          	or	t0,t2,s6
80000fb0:	00e3c333          	xor	t1,t2,a4
80000fb4:	006f8b33          	add	s6,t6,t1
80000fb8:	406f8c33          	sub	s8,t6,t1
80000fbc:	00687933          	and	s2,a6,t1
80000fc0:	0068c5b3          	xor	a1,a7,t1
80000fc4:	0068cbb3          	xor	s7,a7,t1
80000fc8:	018565b3          	or	a1,a0,s8
80000fcc:	01b5f993          	andi	s3,a1,27
80000fd0:	0072ec33          	or	s8,t0,t2
80000fd4:	013c6913          	ori	s2,s8,19
80000fd8:	00cc0a13          	addi	s4,s8,12
80000fdc:	010d6733          	or	a4,s10,a6
80000fe0:	01676613          	ori	a2,a4,22
80000fe4:	01a74633          	xor	a2,a4,s10
80000fe8:	ff774493          	xori	s1,a4,-9
80000fec:	01686533          	or	a0,a6,s6
80000ff0:	01e50d33          	add	s10,a0,t5
80000ff4:	01a56bb3          	or	s7,a0,s10
80000ff8:	01b57333          	and	t1,a0,s11
80000ffc:	011546b3          	xor	a3,a0,a7
80001000:	00886933          	or	s2,a6,s0
80001004:	01996433          	or	s0,s2,s9
80001008:	02594a93          	xori	s5,s2,37
8000100c:	fe596f93          	ori	t6,s2,-27
80001010:	00f97533          	and	a0,s2,a5
80001014:	02596c93          	ori	s9,s2,37
80001018:	00acea33          	or	s4,s9,a0
8000101c:	41478ab3          	sub	s5,a5,s4
80001020:	01ed68b3          	or	a7,s10,t5
80001024:	011f69b3          	or	s3,t5,a7
80001028:	011a0cb3          	add	s9,s4,a7
8000102c:	014fe733          	or	a4,t6,s4
80001030:	00ef06b3          	add	a3,t5,a4
80001034:	00ef6e33          	or	t3,t5,a4
80001038:	00ed42b3          	xor	t0,s10,a4
8000103c:	0053e8b3          	or	a7,t2,t0
80001040:	41128733          	sub	a4,t0,a7
80001044:	0112c633          	xor	a2,t0,a7
80001048:	011a0633          	add	a2,s4,a7
8000104c:	01134733          	xor	a4,t1,a7
80001050:	015365b3          	or	a1,t1,s5
80001054:	00bb8a33          	add	s4,s7,a1
80001058:	00bd82b3          	add	t0,s11,a1
8000105c:	40be05b3          	sub	a1,t3,a1
80001060:	00ba8f33          	add	t5,s5,a1
80001064:	00bac8b3          	xor	a7,s5,a1
80001068:	01c5fdb3          	and	s11,a1,t3
8000106c:	40fd8bb3          	sub	s7,s11,a5
80001070:	01997ab3          	and	s5,s2,s9
80001074:	01bae833          	or	a6,s5,s11
80001078:	00baef93          	ori	t6,s5,11
8000107c:	00ccfbb3          	and	s7,s9,a2
80001080:	ff2bfb13          	andi	s6,s7,-14
80001084:	fe6be493          	ori	s1,s7,-26
80001088:	ff0bcf13          	xori	t5,s7,-16
8000108c:	013572b3          	and	t0,a0,s3
80001090:	01a2f6b3          	and	a3,t0,s10
80001094:	fe728c93          	addi	s9,t0,-25
80001098:	0062e333          	or	t1,t0,t1
8000109c:	0242ed13          	ori	s10,t0,36
800010a0:	01c8f633          	and	a2,a7,t3
800010a4:	01160833          	add	a6,a2,a7
800010a8:	02866f13          	ori	t5,a2,40
800010ac:	00360693          	addi	a3,a2,3
800010b0:	011668b3          	or	a7,a2,a7
800010b4:	01460533          	add	a0,a2,s4
800010b8:	01f6f3b3          	and	t2,a3,t6
800010bc:	007ff933          	and	s2,t6,t2
800010c0:	0173f2b3          	and	t0,t2,s7
800010c4:	0056edb3          	or	s11,a3,t0
800010c8:	405688b3          	sub	a7,a3,t0
800010cc:	01847a33          	and	s4,s0,s8
800010d0:	014bfa33          	and	s4,s7,s4
800010d4:	01467a33          	and	s4,a2,s4
800010d8:	01467cb3          	and	s9,a2,s4
800010dc:	011df533          	and	a0,s11,a7
800010e0:	00a8c633          	xor	a2,a7,a0
800010e4:	00af0ab3          	add	s5,t5,a0
800010e8:	00ab78b3          	and	a7,s6,a0
800010ec:	00ab46b3          	xor	a3,s6,a0
800010f0:	01fa7d33          	and	s10,s4,t6
800010f4:	41ad04b3          	sub	s1,s10,s10
800010f8:	01aeef33          	or	t5,t4,s10
800010fc:	01aef7b3          	and	a5,t4,s10
80001100:	01a4f333          	and	t1,s1,s10
80001104:	01a36933          	or	s2,t1,s10
80001108:	fd990a13          	addi	s4,s2,-39
8000110c:	017a74b3          	and	s1,s4,s7
80001110:	01cb8a13          	addi	s4,s7,28
80001114:	000a6e93          	ori	t4,s4,0
80001118:	ff7a7413          	andi	s0,s4,-9
8000111c:	fedc0713          	addi	a4,s8,-19
80001120:	02270593          	addi	a1,a4,34
80001124:	01b763b3          	or	t2,a4,s11
80001128:	fe876d13          	ori	s10,a4,-24
8000112c:	00958d93          	addi	s11,a1,9
80001130:	fe3dc813          	xori	a6,s11,-29
80001134:	ff4df813          	andi	a6,s11,-12
80001138:	027de713          	ori	a4,s11,39
8000113c:	013d8eb3          	add	t4,s11,s3
80001140:	02270993          	addi	s3,a4,34
80001144:	0059f6b3          	and	a3,s3,t0
80001148:	41398f33          	sub	t5,s3,s3
8000114c:	01998333          	add	t1,s3,s9
80001150:	0159e633          	or	a2,s3,s5
80001154:	00e9e693          	ori	a3,s3,14
80001158:	ff58cc13          	xori	s8,a7,-11
8000115c:	fe0c6313          	ori	t1,s8,-32
80001160:	00054693          	xori	a3,a0,0
80001164:	416687b3          	sub	a5,a3,s6
80001168:	00c6efb3          	or	t6,a3,a2
8000116c:	00dbc813          	xori	a6,s7,13
80001170:	00980b33          	add	s6,a6,s1
80001174:	00280e93          	addi	t4,a6,2
80001178:	02487c13          	andi	s8,a6,36
8000117c:	00d94f93          	xori	t6,s2,13
80001180:	014f8c33          	add	s8,t6,s4
80001184:	000fcf13          	xori	t5,t6,0
80001188:	408f8ab3          	sub	s5,t6,s0
8000118c:	007ff2b3          	and	t0,t6,t2
80001190:	ff5a4d13          	xori	s10,s4,-11
80001194:	ff5d4393          	xori	t2,s10,-11
80001198:	00dd78b3          	and	a7,s10,a3
8000119c:	ff8d7593          	andi	a1,s10,-8
800011a0:	40ed0b33          	sub	s6,s10,a4
800011a4:	00cd7893          	andi	a7,s10,12
800011a8:	001b6f13          	ori	t5,s6,1
800011ac:	019f65b3          	or	a1,t5,s9
800011b0:	02196d93          	ori	s11,s2,33
800011b4:	013dff33          	and	t5,s11,s3
800011b8:	fe6dfd13          	andi	s10,s11,-26
800011bc:	fe8e6913          	ori	s2,t3,-24
800011c0:	01790393          	addi	t2,s2,23
800011c4:	fea94d13          	xori	s10,s2,-22
800011c8:	fdb90413          	addi	s0,s2,-37
800011cc:	fdb66a13          	ori	s4,a2,-37
800011d0:	013a4b33          	xor	s6,s4,s3
800011d4:	01aa4533          	xor	a0,s4,s10
800011d8:	025a4993          	xori	s3,s4,37
800011dc:	00fa7a13          	andi	s4,s4,15
800011e0:	fe95ec93          	ori	s9,a1,-23
800011e4:	01dc8593          	addi	a1,s9,29
800011e8:	01bcc8b3          	xor	a7,s9,s11
800011ec:	016cf533          	and	a0,s9,s6
800011f0:	00ace733          	or	a4,s9,a0
800011f4:	00acec13          	ori	s8,s9,10
800011f8:	005c7a93          	andi	s5,s8,5
800011fc:	fe4ac593          	xori	a1,s5,-28
80001200:	011ff393          	andi	t2,t6,17
80001204:	41a38fb3          	sub	t6,t2,s10
80001208:	01b38933          	add	s2,t2,s11
8000120c:	fff7fc93          	andi	s9,a5,-1
80001210:	016ce2b3          	or	t0,s9,s6
80001214:	01bc8933          	add	s2,s9,s11
80001218:	021ce913          	ori	s2,s9,33
8000121c:	003fff13          	andi	t5,t6,3
80001220:	406f0833          	sub	a6,t5,t1
80001224:	41df0433          	sub	s0,t5,t4
80001228:	fdff4713          	xori	a4,t5,-33
8000122c:	fe9f0513          	addi	a0,t5,-23
80001230:	fef47693          	andi	a3,s0,-17
80001234:	00c6ee33          	or	t3,a3,a2
80001238:	01a6fcb3          	and	s9,a3,s10
8000123c:	0136ea13          	ori	s4,a3,19
80001240:	01b6efb3          	or	t6,a3,s11
80001244:	fe56fb13          	andi	s6,a3,-27
80001248:	3ce28013          	addi	zero,t0,974
8000124c:	39230013          	addi	zero,t1,914
80001250:	0c838013          	addi	zero,t2,200
80001254:	04d40013          	addi	zero,s0,77
80001258:	06b48013          	addi	zero,s1,107
8000125c:	e7e50013          	addi	zero,a0,-386
80001260:	e1558013          	addi	zero,a1,-491
80001264:	fd960013          	addi	zero,a2,-39
80001268:	27c68013          	addi	zero,a3,636
8000126c:	01d70013          	addi	zero,a4,29
80001270:	02f78013          	addi	zero,a5,47
80001274:	cff80013          	addi	zero,a6,-769
80001278:	19288013          	addi	zero,a7,402
8000127c:	00390013          	addi	zero,s2,3
80001280:	3a798013          	addi	zero,s3,935
80001284:	261a0013          	addi	zero,s4,609
80001288:	dc7a8013          	addi	zero,s5,-569
8000128c:	d45b0013          	addi	zero,s6,-699
80001290:	2cbb8013          	addi	zero,s7,715
80001294:	093c0013          	addi	zero,s8,147
80001298:	381c8013          	addi	zero,s9,897
8000129c:	38cd0013          	addi	zero,s10,908
800012a0:	dfad8013          	addi	zero,s11,-518
800012a4:	c96e0013          	addi	zero,t3,-874
800012a8:	1e7e8013          	addi	zero,t4,487
800012ac:	3c3f0013          	addi	zero,t5,963
800012b0:	15bf8013          	addi	zero,t6,347
800012b4:	00ad07b3          	add	a5,s10,a0
800012b8:	0117f5b3          	and	a1,a5,a7
800012bc:	019487b3          	add	a5,s1,s9
800012c0:	fe57ec13          	ori	s8,a5,-27
800012c4:	0187fbb3          	and	s7,a5,s8
800012c8:	006389b3          	add	s3,t2,t1
800012cc:	01f9cb33          	xor	s6,s3,t6
800012d0:	01d98493          	addi	s1,s3,29
800012d4:	406983b3          	sub	t2,s3,t1
800012d8:	016c8a33          	add	s4,s9,s6
800012dc:	ff0a4293          	xori	t0,s4,-16
800012e0:	01ba6733          	or	a4,s4,s11
800012e4:	0a75                	addi	s4,s4,29
800012e6:	01ea4a13          	xori	s4,s4,30
800012ea:	01f783b3          	add	t2,a5,t6
800012ee:	ff53e393          	ori	t2,t2,-11
800012f2:	417385b3          	sub	a1,t2,s7
800012f6:	41e38c33          	sub	s8,t2,t5
800012fa:	ff23c393          	xori	t2,t2,-14
800012fe:	01d3f713          	andi	a4,t2,29
80001302:	017906b3          	add	a3,s2,s7
80001306:	00db8f33          	add	t5,s7,a3
8000130a:	01c58db3          	add	s11,a1,t3
8000130e:	01b77833          	and	a6,a4,s11
80001312:	01b30fb3          	add	t6,t1,s11
80001316:	01ec86b3          	add	a3,s9,t5
8000131a:	40df0733          	sub	a4,t5,a3
8000131e:	00d473b3          	and	t2,s0,a3
80001322:	8c75                	and	s0,s0,a3
80001324:	007d8eb3          	add	t4,s11,t2
80001328:	01dfe433          	or	s0,t6,t4
8000132c:	01dff833          	and	a6,t6,t4
80001330:	01d87cb3          	and	s9,a6,t4
80001334:	41d80fb3          	sub	t6,a6,t4
80001338:	016e86b3          	add	a3,t4,s6
8000133c:	00de8433          	add	s0,t4,a3
80001340:	00dfc333          	xor	t1,t6,a3
80001344:	00dfc833          	xor	a6,t6,a3
80001348:	00dfcab3          	xor	s5,t6,a3
8000134c:	00df87b3          	add	a5,t6,a3
80001350:	41b30433          	sub	s0,t1,s11
80001354:	41040db3          	sub	s11,s0,a6
80001358:	411c07b3          	sub	a5,s8,a7
8000135c:	0147fd33          	and	s10,a5,s4
80001360:	0157f6b3          	and	a3,a5,s5
80001364:	40978bb3          	sub	s7,a5,s1
80001368:	008bf893          	andi	a7,s7,8
8000136c:	01bbcdb3          	xor	s11,s7,s11
80001370:	011b8633          	add	a2,s7,a7
80001374:	41930eb3          	sub	t4,t1,s9
80001378:	ff2efe13          	andi	t3,t4,-14
8000137c:	ff1ec593          	xori	a1,t4,-15
80001380:	febe8d13          	addi	s10,t4,-21
80001384:	01be89b3          	add	s3,t4,s11
80001388:	416c8e33          	sub	t3,s9,s6
8000138c:	011e7a33          	and	s4,t3,a7
80001390:	008e7913          	andi	s2,t3,8
80001394:	41ee0933          	sub	s2,t3,t5
80001398:	406e0cb3          	sub	s9,t3,t1
8000139c:	00ae7813          	andi	a6,t3,10
800013a0:	41e782b3          	sub	t0,a5,t5
800013a4:	405f0633          	sub	a2,t5,t0
800013a8:	408e8b33          	sub	s6,t4,s0
800013ac:	016acfb3          	xor	t6,s5,s6
800013b0:	016aceb3          	xor	t4,s5,s6
800013b4:	41d80533          	sub	a0,a6,t4
800013b8:	00a57cb3          	and	s9,a0,a0
800013bc:	00ae08b3          	add	a7,t3,a0
800013c0:	00a866b3          	or	a3,a6,a0
800013c4:	40668bb3          	sub	s7,a3,t1
800013c8:	01784e33          	xor	t3,a6,s7
800013cc:	01786fb3          	or	t6,a6,s7
800013d0:	0179c2b3          	xor	t0,s3,s7
800013d4:	01798db3          	add	s11,s3,s7
800013d8:	411c07b3          	sub	a5,s8,a7
800013dc:	00fb7633          	and	a2,s6,a5
800013e0:	00fb0db3          	add	s11,s6,a5
800013e4:	00fb47b3          	xor	a5,s6,a5
800013e8:	40fb09b3          	sub	s3,s6,a5
800013ec:	00fb6eb3          	or	t4,s6,a5
800013f0:	009f4733          	xor	a4,t5,s1
800013f4:	01e708b3          	add	a7,a4,t5
800013f8:	0078cf33          	xor	t5,a7,t2
800013fc:	409f0cb3          	sub	s9,t5,s1
80001400:	011f6833          	or	a6,t5,a7
80001404:	0136c333          	xor	t1,a3,s3
80001408:	fe230c13          	addi	s8,t1,-30
8000140c:	00734b33          	xor	s6,t1,t2
80001410:	01034993          	xori	s3,t1,16
80001414:	0187cab3          	xor	s5,a5,s8
80001418:	01eae2b3          	or	t0,s5,t5
8000141c:	017aed33          	or	s10,s5,s7
80001420:	023afa93          	andi	s5,s5,35
80001424:	017a8a13          	addi	s4,s5,23
80001428:	0069cf33          	xor	t5,s3,t1
8000142c:	014f4f33          	xor	t5,t5,s4
80001430:	016f0b13          	addi	s6,t5,22
80001434:	40ef09b3          	sub	s3,t5,a4
80001438:	013f7333          	and	t1,t5,s3
8000143c:	40af0d33          	sub	s10,t5,a0
80001440:	00ecce33          	xor	t3,s9,a4
80001444:	01c744b3          	xor	s1,a4,t3
80001448:	01bd4333          	xor	t1,s10,s11
8000144c:	00638533          	add	a0,t2,t1
80001450:	006c0d33          	add	s10,s8,t1
80001454:	01aa4733          	xor	a4,s4,s10
80001458:	00ef47b3          	xor	a5,t5,a4
8000145c:	00ef62b3          	or	t0,t5,a4
80001460:	40ef04b3          	sub	s1,t5,a4
80001464:	00bc4db3          	xor	s11,s8,a1
80001468:	01b3f933          	and	s2,t2,s11
8000146c:	01b88533          	add	a0,a7,s11
80001470:	01b37ab3          	and	s5,t1,s11
80001474:	01b30533          	add	a0,t1,s11
80001478:	00cd4ab3          	xor	s5,s10,a2
8000147c:	015647b3          	xor	a5,a2,s5
80001480:	015c7533          	and	a0,s8,s5
80001484:	01540c33          	add	s8,s0,s5
80001488:	01544b33          	xor	s6,s0,s5
8000148c:	0155fcb3          	and	s9,a1,s5
80001490:	013ee2b3          	or	t0,t4,s3
80001494:	fde28b13          	addi	s6,t0,-34
80001498:	00a96a33          	or	s4,s2,a0
8000149c:	012a08b3          	add	a7,s4,s2
800014a0:	413a0eb3          	sub	t4,s4,s3
800014a4:	01796733          	or	a4,s2,s7
800014a8:	00177793          	andi	a5,a4,1
800014ac:	fe077813          	andi	a6,a4,-32
800014b0:	405704b3          	sub	s1,a4,t0
800014b4:	00996633          	or	a2,s2,s1
800014b8:	00e66fb3          	or	t6,a2,a4
800014bc:	01860733          	add	a4,a2,s8
800014c0:	41560e33          	sub	t3,a2,s5
800014c4:	00c672b3          	and	t0,a2,a2
800014c8:	006ee533          	or	a0,t4,t1
800014cc:	41750433          	sub	s0,a0,s7
800014d0:	ff456a93          	ori	s5,a0,-12
800014d4:	01454433          	xor	s0,a0,s4
800014d8:	02856313          	ori	t1,a0,40
800014dc:	00956b93          	ori	s7,a0,9
800014e0:	013f6ab3          	or	s5,t5,s3
800014e4:	0152e8b3          	or	a7,t0,s5
800014e8:	00c46333          	or	t1,s0,a2
800014ec:	006df2b3          	and	t0,s11,t1
800014f0:	406a0533          	sub	a0,s4,t1
800014f4:	01b4ebb3          	or	s7,s1,s11
800014f8:	0175c733          	xor	a4,a1,s7
800014fc:	0173c333          	xor	t1,t2,s7
80001500:	417385b3          	sub	a1,t2,s7
80001504:	01c6e8b3          	or	a7,a3,t3
80001508:	01188bb3          	add	s7,a7,a7
8000150c:	011c4433          	xor	s0,s8,a7
80001510:	011fc3b3          	xor	t2,t6,a7
80001514:	0119e8b3          	or	a7,s3,a7
80001518:	01d7ed33          	or	s10,a5,t4
8000151c:	01ae8ab3          	add	s5,t4,s10
80001520:	41a48b33          	sub	s6,s1,s10
80001524:	01a5f833          	and	a6,a1,s10
80001528:	01a4e533          	or	a0,s1,s10
8000152c:	01ae8933          	add	s2,t4,s10
80001530:	009ff833          	and	a6,t6,s1
80001534:	00d872b3          	and	t0,a6,a3
80001538:	00cdfeb3          	and	t4,s11,a2
8000153c:	01ee8793          	addi	a5,t4,30
80001540:	ffae8413          	addi	s0,t4,-6
80001544:	01f87eb3          	and	t4,a6,t6
80001548:	ff5ec513          	xori	a0,t4,-11
8000154c:	fdfec693          	xori	a3,t4,-33
80001550:	feeecc13          	xori	s8,t4,-18
80001554:	00ea7333          	and	t1,s4,a4
80001558:	01736d33          	or	s10,t1,s7
8000155c:	ff936e93          	ori	t4,t1,-7
80001560:	018348b3          	xor	a7,t1,s8
80001564:	011306b3          	add	a3,t1,a7
80001568:	0079fd33          	and	s10,s3,t2
8000156c:	00dd6c33          	or	s8,s10,a3
80001570:	fd8d6c93          	ori	s9,s10,-40
80001574:	027d4493          	xori	s1,s10,39
80001578:	fddd7b13          	andi	s6,s10,-35
8000157c:	020d4b13          	xori	s6,s10,32
80001580:	017a77b3          	and	a5,s4,s7
80001584:	00fb6a33          	or	s4,s6,a5
80001588:	01d57733          	and	a4,a0,t4
8000158c:	00eeecb3          	or	s9,t4,a4
80001590:	00eefd33          	and	s10,t4,a4
80001594:	00edfbb3          	and	s7,s11,a4
80001598:	41748e33          	sub	t3,s1,s7
8000159c:	017f4fb3          	xor	t6,t5,s7
800015a0:	417c8ab3          	sub	s5,s9,s7
800015a4:	0133f5b3          	and	a1,t2,s3
800015a8:	40b285b3          	sub	a1,t0,a1
800015ac:	00b283b3          	add	t2,t0,a1
800015b0:	40b505b3          	sub	a1,a0,a1
800015b4:	00b54db3          	xor	s11,a0,a1
800015b8:	00fc79b3          	and	s3,s8,a5
800015bc:	0137c833          	xor	a6,a5,s3
800015c0:	01358933          	add	s2,a1,s3
800015c4:	0135ebb3          	or	s7,a1,s3
800015c8:	0135fab3          	and	s5,a1,s3
800015cc:	41358533          	sub	a0,a1,s3
800015d0:	025e8913          	addi	s2,t4,37
800015d4:	01496393          	ori	t2,s2,20
800015d8:	02798393          	addi	t2,s3,39
800015dc:	41b386b3          	sub	a3,t2,s11
800015e0:	fe43e813          	ori	a6,t2,-28
800015e4:	016f8393          	addi	t2,t6,22
800015e8:	01d38813          	addi	a6,t2,29
800015ec:	00d3c433          	xor	s0,t2,a3
800015f0:	fe93fa93          	andi	s5,t2,-23
800015f4:	02350c93          	addi	s9,a0,35
800015f8:	fdacca93          	xori	s5,s9,-38
800015fc:	01ccf333          	and	t1,s9,t3
80001600:	024ce713          	ori	a4,s9,36
80001604:	ff3cc793          	xori	a5,s9,-13
80001608:	fe840613          	addi	a2,s0,-24
8000160c:	01764593          	xori	a1,a2,23
80001610:	01d60b33          	add	s6,a2,t4
80001614:	01c66c93          	ori	s9,a2,28
80001618:	01f64813          	xori	a6,a2,31
8000161c:	41d603b3          	sub	t2,a2,t4
80001620:	00344e93          	xori	t4,s0,3
80001624:	013ef5b3          	and	a1,t4,s3
80001628:	ffd8c493          	xori	s1,a7,-3
8000162c:	fef48b13          	addi	s6,s1,-17
80001630:	02648693          	addi	a3,s1,38
80001634:	fe394f13          	xori	t5,s2,-29
80001638:	006f4413          	xori	s0,t5,6
8000163c:	01ff68b3          	or	a7,t5,t6
80001640:	01ef72b3          	and	t0,t5,t5
80001644:	021f4a93          	xori	s5,t5,33
80001648:	01eaea33          	or	s4,s5,t5
8000164c:	018ac533          	xor	a0,s5,s8
80001650:	fe0aeb93          	ori	s7,s5,-32
80001654:	40ea82b3          	sub	t0,s5,a4
80001658:	020d4a13          	xori	s4,s10,32
8000165c:	017a4fb3          	xor	t6,s4,s7
80001660:	019a7833          	and	a6,s4,s9
80001664:	005a09b3          	add	s3,s4,t0
80001668:	010a0393          	addi	t2,s4,16
8000166c:	409a0ab3          	sub	s5,s4,s1
80001670:	026ce793          	ori	a5,s9,38
80001674:	0067ceb3          	xor	t4,a5,t1
80001678:	ff586793          	ori	a5,a6,-11
8000167c:	01778313          	addi	t1,a5,23
80001680:	00d7ecb3          	or	s9,a5,a3
80001684:	00a6e913          	ori	s2,a3,10
80001688:	01b90333          	add	t1,s2,s11
8000168c:	010969b3          	or	s3,s2,a6
80001690:	fd990e13          	addi	t3,s2,-39
80001694:	028b6c13          	ori	s8,s6,40
80001698:	000c7613          	andi	a2,s8,0
8000169c:	018c4d93          	xori	s11,s8,24
800016a0:	fe3c6c13          	ori	s8,s8,-29
800016a4:	015c7913          	andi	s2,s8,21
800016a8:	00aeec13          	ori	s8,t4,10
800016ac:	007c4333          	xor	t1,s8,t2
800016b0:	fdcc0313          	addi	t1,s8,-36
800016b4:	011c7893          	andi	a7,s8,17
800016b8:	416c07b3          	sub	a5,s8,s6
800016bc:	406c0733          	sub	a4,s8,t1
800016c0:	02767e93          	andi	t4,a2,39
800016c4:	fdaecb13          	xori	s6,t4,-38
800016c8:	00937c93          	andi	s9,t1,9
800016cc:	011cf2b3          	and	t0,s9,a7
800016d0:	ffdcf613          	andi	a2,s9,-3
800016d4:	fda7f813          	andi	a6,a5,-38
800016d8:	00387e13          	andi	t3,a6,3
800016dc:	41180b33          	sub	s6,a6,a7
800016e0:	01987cb3          	and	s9,a6,s9
800016e4:	ff7ff813          	andi	a6,t6,-9
800016e8:	01687ab3          	and	s5,a6,s6
800016ec:	01387733          	and	a4,a6,s3
800016f0:	02487513          	andi	a0,a6,36
800016f4:	01d80913          	addi	s2,a6,29
800016f8:	ff757313          	andi	t1,a0,-9
800016fc:	00736cb3          	or	s9,t1,t2
80001700:	01f37693          	andi	a3,t1,31
80001704:	41530933          	sub	s2,t1,s5
80001708:	01f34b93          	xori	s7,t1,31
8000170c:	41430e33          	sub	t3,t1,s4
80001710:	015f07b3          	add	a5,t5,s5
80001714:	00f78633          	add	a2,a5,a5
80001718:	00bd8eb3          	add	t4,s11,a1
8000171c:	00aec5b3          	xor	a1,t4,a0
80001720:	416e8933          	sub	s2,t4,s6
80001724:	005309b3          	add	s3,t1,t0
80001728:	0069c333          	xor	t1,s3,t1
8000172c:	ff398f93          	addi	t6,s3,-13
80001730:	99c2                	add	s3,s3,a6
80001732:	00ff0833          	add	a6,t5,a5
80001736:	411807b3          	sub	a5,a6,a7
8000173a:	fef87293          	andi	t0,a6,-17
8000173e:	41480eb3          	sub	t4,a6,s4
80001742:	01486733          	or	a4,a6,s4
80001746:	01f30733          	add	a4,t1,t6
8000174a:	00477b93          	andi	s7,a4,4
8000174e:	011702b3          	add	t0,a4,a7
80001752:	fee70f13          	addi	t5,a4,-18
80001756:	00674f93          	xori	t6,a4,6
8000175a:	01677bb3          	and	s7,a4,s6
8000175e:	009f06b3          	add	a3,t5,s1
80001762:	00d4ec33          	or	s8,s1,a3
80001766:	00958c33          	add	s8,a1,s1
8000176a:	018483b3          	add	t2,s1,s8
8000176e:	418e0933          	sub	s2,t3,s8
80001772:	007d04b3          	add	s1,s10,t2
80001776:	0092c833          	xor	a6,t0,s1
8000177a:	409382b3          	sub	t0,t2,s1
8000177e:	94ba                	add	s1,s1,a4
80001780:	014d06b3          	add	a3,s10,s4
80001784:	00da7433          	and	s0,s4,a3
80001788:	00da77b3          	and	a5,s4,a3
8000178c:	00d57fb3          	and	t6,a0,a3
80001790:	00dd6b33          	or	s6,s10,a3
80001794:	01938c33          	add	s8,t2,s9
80001798:	41868e33          	sub	t3,a3,s8
8000179c:	418782b3          	sub	t0,a5,s8
800017a0:	0187f533          	and	a0,a5,s8
800017a4:	0187eab3          	or	s5,a5,s8
800017a8:	418787b3          	sub	a5,a5,s8
800017ac:	414a88b3          	sub	a7,s5,s4
800017b0:	fe788e13          	addi	t3,a7,-25
800017b4:	41ed0933          	sub	s2,s10,t5
800017b8:	01296d33          	or	s10,s2,s2
800017bc:	00694c33          	xor	s8,s2,t1
800017c0:	416a0c33          	sub	s8,s4,s6
800017c4:	fddc6f93          	ori	t6,s8,-35
800017c8:	fecc6813          	ori	a6,s8,-20
800017cc:	016c74b3          	and	s1,s8,s6
800017d0:	41c308b3          	sub	a7,t1,t3
800017d4:	00988433          	add	s0,a7,s1
800017d8:	02188313          	addi	t1,a7,33
800017dc:	01788db3          	add	s11,a7,s7
800017e0:	41a88933          	sub	s2,a7,s10
800017e4:	41f30c33          	sub	s8,t1,t6
800017e8:	ffbc7693          	andi	a3,s8,-5
800017ec:	005c0533          	add	a0,s8,t0
800017f0:	febc6e93          	ori	t4,s8,-21
800017f4:	417c0cb3          	sub	s9,s8,s7
800017f8:	00ac0333          	add	t1,s8,a0
800017fc:	40ce06b3          	sub	a3,t3,a2
80001800:	9636                	add	a2,a2,a3
80001802:	41ae09b3          	sub	s3,t3,s10
80001806:	413f83b3          	sub	t2,t6,s3
8000180a:	013e8933          	add	s2,t4,s3
8000180e:	41bb8433          	sub	s0,s7,s11
80001812:	008f82b3          	add	t0,t6,s0
80001816:	008fc933          	xor	s2,t6,s0
8000181a:	00894333          	xor	t1,s2,s0
8000181e:	40598db3          	sub	s11,s3,t0
80001822:	01b64b33          	xor	s6,a2,s11
80001826:	01beeb33          	or	s6,t4,s11
8000182a:	01bd64b3          	or	s1,s10,s11
8000182e:	01b87733          	and	a4,a6,s11
80001832:	407587b3          	sub	a5,a1,t2
80001836:	00f38bb3          	add	s7,t2,a5
8000183a:	00fbc6b3          	xor	a3,s7,a5
8000183e:	00ff7db3          	and	s11,t5,a5
80001842:	40ff0833          	sub	a6,t5,a5
80001846:	00ff7bb3          	and	s7,t5,a5
8000184a:	01a646b3          	xor	a3,a2,s10
8000184e:	0106e533          	or	a0,a3,a6
80001852:	018cc533          	xor	a0,s9,s8
80001856:	01b50a13          	addi	s4,a0,27
8000185a:	01d57f33          	and	t5,a0,t4
8000185e:	01e5cbb3          	xor	s7,a1,t5
80001862:	ff1bf313          	andi	t1,s7,-15
80001866:	01fbe533          	or	a0,s7,t6
8000186a:	01ebe9b3          	or	s3,s7,t5
8000186e:	00de44b3          	xor	s1,t3,a3
80001872:	407487b3          	sub	a5,s1,t2
80001876:	fea48d93          	addi	s11,s1,-22
8000187a:	40a48533          	sub	a0,s1,a0
8000187e:	41b48c33          	sub	s8,s1,s11
80001882:	01b8ca33          	xor	s4,a7,s11
80001886:	00aa6633          	or	a2,s4,a0
8000188a:	017a69b3          	or	s3,s4,s7
8000188e:	01ba4e93          	xori	t4,s4,27
80001892:	015a0d33          	add	s10,s4,s5
80001896:	412a06b3          	sub	a3,s4,s2
8000189a:	0084cfb3          	xor	t6,s1,s0
8000189e:	01fa6e33          	or	t3,s4,t6
800018a2:	01f44f33          	xor	t5,s0,t6
800018a6:	01e8c4b3          	xor	s1,a7,t5
800018aa:	41e60c33          	sub	s8,a2,t5
800018ae:	0156cb33          	xor	s6,a3,s5
800018b2:	016af3b3          	and	t2,s5,s6
800018b6:	016a7733          	and	a4,s4,s6
800018ba:	01698eb3          	add	t4,s3,s6
800018be:	007c4fb3          	xor	t6,s8,t2
800018c2:	01fcfcb3          	and	s9,s9,t6
800018c6:	41fe0b33          	sub	s6,t3,t6
800018ca:	01f5f9b3          	and	s3,a1,t6
800018ce:	01f38bb3          	add	s7,t2,t6
800018d2:	00efc7b3          	xor	a5,t6,a4
800018d6:	40fe8933          	sub	s2,t4,a5
800018da:	00ff4333          	xor	t1,t5,a5
800018de:	40f58833          	sub	a6,a1,a5
800018e2:	00f90633          	add	a2,s2,a5
800018e6:	00f964b3          	or	s1,s2,a5
800018ea:	00fee533          	or	a0,t4,a5
800018ee:	41a50433          	sub	s0,a0,s10
800018f2:	01ed62b3          	or	t0,s10,t5
800018f6:	41428933          	sub	s2,t0,s4
800018fa:	0182eb93          	ori	s7,t0,24
800018fe:	00dc6fb3          	or	t6,s8,a3
80001902:	00dfe633          	or	a2,t6,a3
80001906:	017fff33          	and	t5,t6,s7
8000190a:	00aff333          	and	t1,t6,a0
8000190e:	01ed6ab3          	or	s5,s10,t5
80001912:	022a8e13          	addi	t3,s5,34
80001916:	01cac733          	xor	a4,s5,t3
8000191a:	40da8ab3          	sub	s5,s5,a3
8000191e:	020ace93          	xori	t4,s5,32
80001922:	018de7b3          	or	a5,s11,s8
80001926:	00e7c8b3          	xor	a7,a5,a4
8000192a:	419783b3          	sub	t2,a5,s9
8000192e:	41a78ab3          	sub	s5,a5,s10
80001932:	418789b3          	sub	s3,a5,s8
80001936:	40c788b3          	sub	a7,a5,a2
8000193a:	012ae3b3          	or	t2,s5,s2
8000193e:	007ecbb3          	xor	s7,t4,t2
80001942:	01a5e633          	or	a2,a1,s10
80001946:	00c54a33          	xor	s4,a0,a2
8000194a:	40c50933          	sub	s2,a0,a2
8000194e:	01d5ea33          	or	s4,a1,t4
80001952:	014cf2b3          	and	t0,s9,s4
80001956:	014cc633          	xor	a2,s9,s4
8000195a:	014cf733          	and	a4,s9,s4
8000195e:	010669b3          	or	s3,a2,a6
80001962:	013878b3          	and	a7,a6,s3
80001966:	0137e633          	or	a2,a5,s3
8000196a:	0137ec33          	or	s8,a5,s3
8000196e:	013ae933          	or	s2,s5,s3
80001972:	0167ed33          	or	s10,a5,s6
80001976:	01af0633          	add	a2,t5,s10
8000197a:	41af0bb3          	sub	s7,t5,s10
8000197e:	01af03b3          	add	t2,t5,s10
80001982:	01a9eb33          	or	s6,s3,s10
80001986:	41ab0433          	sub	s0,s6,s10
8000198a:	01737d33          	and	s10,t1,s7
8000198e:	014d0e13          	addi	t3,s10,20
80001992:	00b57fb3          	and	t6,a0,a1
80001996:	013f8ab3          	add	s5,t6,s3
8000199a:	fd8f8f13          	addi	t5,t6,-40
8000199e:	00ccf5b3          	and	a1,s9,a2
800019a2:	01c5fa13          	andi	s4,a1,28
800019a6:	fef5e513          	ori	a0,a1,-17
800019aa:	0105e633          	or	a2,a1,a6
800019ae:	01b7f3b3          	and	t2,a5,s11
800019b2:	ff83cc13          	xori	s8,t2,-8
800019b6:	0143e713          	ori	a4,t2,20
800019ba:	00f3e3b3          	or	t2,t2,a5
800019be:	fec3ef93          	ori	t6,t2,-20
800019c2:	01aefc33          	and	s8,t4,s10
800019c6:	00dc4f93          	xori	t6,s8,13
800019ca:	ff6c7393          	andi	t2,s8,-10
800019ce:	011c6ab3          	or	s5,s8,a7
800019d2:	41ec03b3          	sub	t2,s8,t5
800019d6:	01ec4bb3          	xor	s7,s8,t5
800019da:	012d7e33          	and	t3,s10,s2
800019de:	01cb4933          	xor	s2,s6,t3
800019e2:	00f2f533          	and	a0,t0,a5
800019e6:	00a6f633          	and	a2,a3,a0
800019ea:	8d75                	and	a0,a0,a3
800019ec:	01567c33          	and	s8,a2,s5
800019f0:	018ae9b3          	or	s3,s5,s8
800019f4:	018a8833          	add	a6,s5,s8
800019f8:	018e4533          	xor	a0,t3,s8
800019fc:	00837fb3          	and	t6,t1,s0
80001a00:	01f47d33          	and	s10,s0,t6
80001a04:	01f47cb3          	and	s9,s0,t6
80001a08:	01fac8b3          	xor	a7,s5,t6
80001a0c:	41f30ab3          	sub	s5,t1,t6
80001a10:	01c3f9b3          	and	s3,t2,t3
80001a14:	013dcbb3          	xor	s7,s11,s3
80001a18:	013a44b3          	xor	s1,s4,s3
80001a1c:	013a7c33          	and	s8,s4,s3
80001a20:	013a02b3          	add	t0,s4,s3
80001a24:	013a7ab3          	and	s5,s4,s3
80001a28:	ffdd0493          	addi	s1,s10,-3
80001a2c:	0254e693          	ori	a3,s1,37
80001a30:	ff4e8c13          	addi	s8,t4,-12
80001a34:	01ec4533          	xor	a0,s8,t5
80001a38:	01ec7b33          	and	s6,s8,t5
80001a3c:	00570b93          	addi	s7,a4,5
80001a40:	ff7be793          	ori	a5,s7,-9
80001a44:	01cbe6b3          	or	a3,s7,t3
80001a48:	012b8633          	add	a2,s7,s2
80001a4c:	ff970393          	addi	t2,a4,-7
80001a50:	0253f693          	andi	a3,t2,37
80001a54:	0063f293          	andi	t0,t2,6
80001a58:	41b387b3          	sub	a5,t2,s11
80001a5c:	0173ec93          	ori	s9,t2,23
80001a60:	fdb58913          	addi	s2,a1,-37
80001a64:	00e94b13          	xori	s6,s2,14
80001a68:	00697a33          	and	s4,s2,t1
80001a6c:	00794f93          	xori	t6,s2,7
80001a70:	41e90db3          	sub	s11,s2,t5
80001a74:	018975b3          	and	a1,s2,s8
80001a78:	017e4a13          	xori	s4,t3,23
80001a7c:	025a4c93          	xori	s9,s4,37
80001a80:	fead4513          	xori	a0,s10,-22
80001a84:	01856b33          	or	s6,a0,s8
80001a88:	01b573b3          	and	t2,a0,s11
80001a8c:	00854e13          	xori	t3,a0,8
80001a90:	01de0cb3          	add	s9,t3,t4
80001a94:	ff3e4313          	xori	t1,t3,-13
80001a98:	fede7f13          	andi	t5,t3,-19
80001a9c:	ff2d4f13          	xori	t5,s10,-14
80001aa0:	015f7ab3          	and	s5,t5,s5
80001aa4:	01df6633          	or	a2,t5,t4
80001aa8:	002f7c13          	andi	s8,t5,2
80001aac:	00df4cb3          	xor	s9,t5,a3
80001ab0:	01d5cf13          	xori	t5,a1,29
80001ab4:	fe2f4313          	xori	t1,t5,-30
80001ab8:	40bf04b3          	sub	s1,t5,a1
80001abc:	414f06b3          	sub	a3,t5,s4
80001ac0:	ffef4e93          	xori	t4,t5,-2
80001ac4:	00df7bb3          	and	s7,t5,a3
80001ac8:	ff08e413          	ori	s0,a7,-16
80001acc:	018402b3          	add	t0,s0,s8
80001ad0:	01e56593          	ori	a1,a0,30
80001ad4:	0075fb33          	and	s6,a1,t2
80001ad8:	01a58f93          	addi	t6,a1,26
80001adc:	ffb6ed13          	ori	s10,a3,-5
80001ae0:	015d44b3          	xor	s1,s10,s5
80001ae4:	01dd66b3          	or	a3,s10,t4
80001ae8:	006d67b3          	or	a5,s10,t1
80001aec:	00a9e413          	ori	s0,s3,10
80001af0:	01946cb3          	or	s9,s0,s9
80001af4:	fe747493          	andi	s1,s0,-25
80001af8:	01347933          	and	s2,s0,s3
80001afc:	02440693          	addi	a3,s0,36
80001b00:	fde9ec13          	ori	s8,s3,-34
80001b04:	018c0cb3          	add	s9,s8,s8
80001b08:	018c4633          	xor	a2,s8,s8
80001b0c:	001c6e93          	ori	t4,s8,1
80001b10:	00dc0b13          	addi	s6,s8,13
80001b14:	405c0333          	sub	t1,s8,t0
80001b18:	fd84f313          	andi	t1,s1,-40
80001b1c:	00737d33          	and	s10,t1,t2
80001b20:	01b47293          	andi	t0,s0,27
80001b24:	ff328793          	addi	a5,t0,-13
80001b28:	0082edb3          	or	s11,t0,s0
80001b2c:	fdba7b93          	andi	s7,s4,-37
80001b30:	00bbea93          	ori	s5,s7,11
80001b34:	017b8b33          	add	s6,s7,s7
80001b38:	01abceb3          	xor	t4,s7,s10
80001b3c:	fe657893          	andi	a7,a0,-26
80001b40:	00f8c933          	xor	s2,a7,a5
80001b44:	fe288f13          	addi	t5,a7,-30
80001b48:	00c8f3b3          	and	t2,a7,a2
80001b4c:	fe48cf13          	xori	t5,a7,-28
80001b50:	01177b13          	andi	s6,a4,17
80001b54:	009b65b3          	or	a1,s6,s1
80001b58:	010b7613          	andi	a2,s6,16
80001b5c:	416b02b3          	sub	t0,s6,s6
80001b60:	01ab6833          	or	a6,s6,s10
80001b64:	41fb03b3          	sub	t2,s6,t6

80001b68 <romromrom>:
80001b68:	4291                	li	t0,4

80001b6a <loop1>:
80001b6a:	00500563          	beq	zero,t0,80001b74 <beq00>
80001b6e:	12fd                	addi	t0,t0,-1
80001b70:	0001                	nop
80001b72:	bfe5                	j	80001b6a <loop1>

80001b74 <beq00>:
80001b74:	4085                	li	ra,1
80001b76:	4109                	li	sp,2
80001b78:	418d                	li	gp,3
80001b7a:	4211                	li	tp,4
80001b7c:	4295                	li	t0,5
80001b7e:	4319                	li	t1,6
80001b80:	439d                	li	t2,7
80001b82:	4421                	li	s0,8
80001b84:	44a5                	li	s1,9
80001b86:	4529                	li	a0,10
80001b88:	45ad                	li	a1,11
80001b8a:	4631                	li	a2,12
80001b8c:	46b5                	li	a3,13
80001b8e:	4739                	li	a4,14
80001b90:	47bd                	li	a5,15
80001b92:	4841                	li	a6,16
80001b94:	48c5                	li	a7,17
80001b96:	4949                	li	s2,18
80001b98:	49cd                	li	s3,19
80001b9a:	4a51                	li	s4,20
80001b9c:	4ad5                	li	s5,21
80001b9e:	4b59                	li	s6,22
80001ba0:	4bdd                	li	s7,23
80001ba2:	4c61                	li	s8,24
80001ba4:	4ce5                	li	s9,25
80001ba6:	4d69                	li	s10,26
80001ba8:	4ded                	li	s11,27
80001baa:	4e71                	li	t3,28
80001bac:	4ef5                	li	t4,29
80001bae:	4f79                	li	t5,30
80001bb0:	4ffd                	li	t6,31
80001bb2:	011e0b93          	addi	s7,t3,17
80001bb6:	01cbfc33          	and	s8,s7,t3
80001bba:	017b63b3          	or	t2,s6,s7
80001bbe:	412b89b3          	sub	s3,s7,s2
80001bc2:	4091                	li	ra,4
80001bc4:	517d                	li	sp,-1
80001bc6:	4189                	li	gp,2
80001bc8:	0020a213          	slti	tp,ra,2
80001bcc:	00112213          	slti	tp,sp,1
80001bd0:	0020b213          	sltiu	tp,ra,2
80001bd4:	00113213          	seqz	tp,sp
80001bd8:	0070c213          	xori	tp,ra,7
80001bdc:	0010c213          	xori	tp,ra,1
80001be0:	0070e213          	ori	tp,ra,7
80001be4:	0010e213          	ori	tp,ra,1
80001be8:	0070f213          	andi	tp,ra,7
80001bec:	0010f213          	andi	tp,ra,1
80001bf0:	00309213          	slli	tp,ra,0x3
80001bf4:	00385213          	srli	tp,a6,0x3
80001bf8:	4048d213          	srai	tp,a7,0x4
80001bfc:	001102b3          	add	t0,sp,ra
80001c00:	402082b3          	sub	t0,ra,sp
80001c04:	003092b3          	sll	t0,ra,gp
80001c08:	0020a2b3          	slt	t0,ra,sp
80001c0c:	001122b3          	slt	t0,sp,ra
80001c10:	0020b2b3          	sltu	t0,ra,sp
80001c14:	001132b3          	sltu	t0,sp,ra
80001c18:	0020c2b3          	xor	t0,ra,sp
80001c1c:	0032d2b3          	srl	t0,t0,gp
80001c20:	4032d2b3          	sra	t0,t0,gp
80001c24:	0020e2b3          	or	t0,ra,sp
80001c28:	0020f2b3          	and	t0,ra,sp
80001c2c:	00000397          	auipc	t2,0x0
80001c30:	2039                	jal	80001c3e <jal1>
80001c32:	06400093          	li	ra,100
80001c36:	f9c00113          	li	sp,-100
80001c3a:	0c800193          	li	gp,200

80001c3e <jal1>:
80001c3e:	40dd                	li	ra,23
80001c40:	5119                	li	sp,-26
80001c42:	03100193          	li	gp,49
80001c46:	0100046f          	jal	s0,80001c56 <jalr1>
80001c4a:	02900093          	li	ra,41
80001c4e:	fd600113          	li	sp,-42
80001c52:	05300193          	li	gp,83

80001c56 <jalr1>:
80001c56:	40ad                	li	ra,11
80001c58:	5151                	li	sp,-12
80001c5a:	51cd                	li	gp,-13
80001c5c:	4091                	li	ra,4
80001c5e:	517d                	li	sp,-1
80001c60:	4189                	li	gp,2

80001c62 <init>:
80001c62:	908a                	add	ra,ra,sp
80001c64:	40208233          	sub	tp,ra,sp
80001c68:	003092b3          	sll	t0,ra,gp
80001c6c:	0020a333          	slt	t1,ra,sp
80001c70:	001123b3          	slt	t2,sp,ra
80001c74:	0020b433          	sltu	s0,ra,sp
80001c78:	001134b3          	sltu	s1,sp,ra
80001c7c:	0020c533          	xor	a0,ra,sp
80001c80:	0032d5b3          	srl	a1,t0,gp
80001c84:	4032d633          	sra	a2,t0,gp
80001c88:	0020e6b3          	or	a3,ra,sp
80001c8c:	0020f733          	and	a4,ra,sp
80001c90:	fc2099e3          	bne	ra,sp,80001c62 <init>
80001c94:	00208563          	beq	ra,sp,80001c9e <beq1>
80001c98:	4085                	li	ra,1
80001c9a:	4109                	li	sp,2
80001c9c:	418d                	li	gp,3

80001c9e <beq1>:
80001c9e:	0020a313          	slti	t1,ra,2
80001ca2:	00112393          	slti	t2,sp,1
80001ca6:	0020b413          	sltiu	s0,ra,2
80001caa:	00113493          	seqz	s1,sp
80001cae:	0070c513          	xori	a0,ra,7
80001cb2:	0010c593          	xori	a1,ra,1
80001cb6:	0070e613          	ori	a2,ra,7
80001cba:	0010e693          	ori	a3,ra,1
80001cbe:	0070f713          	andi	a4,ra,7
80001cc2:	0010f793          	andi	a5,ra,1
80001cc6:	00309813          	slli	a6,ra,0x3
80001cca:	00385893          	srli	a7,a6,0x3
80001cce:	4048d913          	srai	s2,a7,0x4
80001cd2:	0230c463          	blt	ra,gp,80001cfa <blt1>
80001cd6:	2d100093          	li	ra,721
80001cda:	20a00113          	li	sp,522
80001cde:	1bb00193          	li	gp,443
80001ce2:	15700093          	li	ra,343
80001ce6:	0f500113          	li	sp,245
80001cea:	0a300193          	li	gp,163
80001cee:	30a00093          	li	ra,778
80001cf2:	38200113          	li	sp,898
80001cf6:	30b00193          	li	gp,779

80001cfa <blt1>:
80001cfa:	0011db63          	bge	gp,ra,80001d10 <bge1>
80001cfe:	50fd                	li	ra,-1
80001d00:	5179                	li	sp,-2
80001d02:	51f5                	li	gp,-3
80001d04:	50f1                	li	ra,-4
80001d06:	516d                	li	sp,-5
80001d08:	51e9                	li	gp,-6
80001d0a:	50e5                	li	ra,-7
80001d0c:	5161                	li	sp,-8
80001d0e:	51dd                	li	gp,-9

80001d10 <bge1>:
80001d10:	02a2f463          	bgeu	t0,a0,80001d38 <bgeu1>
80001d14:	06500093          	li	ra,101
80001d18:	0e100113          	li	sp,225
80001d1c:	15900193          	li	gp,345
80001d20:	1de00093          	li	ra,478
80001d24:	23800113          	li	sp,568
80001d28:	28500193          	li	gp,645
80001d2c:	31300093          	li	ra,787
80001d30:	35600113          	li	sp,854
80001d34:	39800193          	li	gp,920

80001d38 <bgeu1>:
80001d38:	02556263          	bltu	a0,t0,80001d5c <exit>
80001d3c:	40ad                	li	ra,11
80001d3e:	4159                	li	sp,22
80001d40:	02100193          	li	gp,33
80001d44:	02c00093          	li	ra,44
80001d48:	03700113          	li	sp,55
80001d4c:	04200193          	li	gp,66
80001d50:	02f00093          	li	ra,47
80001d54:	05800113          	li	sp,88
80001d58:	06300193          	li	gp,99

80001d5c <exit>:
80001d5c:	0001                	nop

Disassembly of section .riscv.attributes:

00000000 <.riscv.attributes>:
   0:	1e41                	addi	t3,t3,-16
   2:	0000                	unimp
   4:	7200                	.insn	2, 0x7200
   6:	7369                	lui	t1,0xffffa
   8:	01007663          	bgeu	zero,a6,14 <_start-0x7fffffec>
   c:	0014                	.insn	2, 0x0014
   e:	0000                	unimp
  10:	7205                	lui	tp,0xfffe1
  12:	3376                	.insn	2, 0x3376
  14:	6932                	.insn	2, 0x6932
  16:	7032                	.insn	2, 0x7032
  18:	5f31                	li	t5,-20
  1a:	30703263          	.insn	4, 0x30703263
	...
